

Microchip Technology PIC18 LITE Macro Assembler V1.30 build 55553 
                                                                                               Tue Jul 19 18:33:04 2016

Microchip Technology Omniscient Code Generator (Lite mode) build 55553
     1                           	processor	18F45K22
     2                           	fnconf	rparam,??,?,0
     3                           	opt	pw 120
     4                           	opt	lm
     5                           	psect	idataCOMRAM,global,class=CODE,delta=1
     6                           	psect	idataBANK0,global,class=CODE,delta=1
     7                           	psect	idataBANK1,global,class=CODE,delta=1
     8                           	psect	smallconst,global,reloc=2,class=SMALLCONST,delta=1
     9                           	psect	cinit,global,reloc=2,class=CODE,delta=1
    10                           	psect	bitbssCOMRAM,global,bit,class=COMRAM,space=1,delta=1
    11                           	psect	bssCOMRAM,global,class=COMRAM,space=1,delta=1
    12                           	psect	dataCOMRAM,global,class=COMRAM,space=1,delta=1
    13                           	psect	bssBANK0,global,class=BANK0,space=1,delta=1
    14                           	psect	dataBANK0,global,class=BANK0,space=1,delta=1
    15                           	psect	bssBANK1,global,class=BANK1,space=1,delta=1
    16                           	psect	dataBANK1,global,class=BANK1,space=1,delta=1
    17                           	psect	cstackBANK1,global,class=BANK1,space=1,delta=1
    18                           	psect	cstackBANK0,global,class=BANK0,space=1,delta=1
    19                           	psect	cstackCOMRAM,global,class=COMRAM,space=1,delta=1
    20                           	psect	text0,global,reloc=2,class=CODE,delta=1
    21                           	psect	text1,global,reloc=2,class=CODE,delta=1
    22                           	psect	text2,global,reloc=2,class=CODE,delta=1
    23                           	psect	text3,global,reloc=2,class=CODE,delta=1
    24                           	psect	text4,global,reloc=2,class=CODE,delta=1
    25                           	psect	text5,global,reloc=2,class=CODE,delta=1
    26                           	psect	text6,global,reloc=2,class=CODE,delta=1
    27                           	psect	text7,global,reloc=2,class=CODE,delta=1
    28                           	psect	text8,global,reloc=2,class=CODE,delta=1
    29                           	psect	text9,global,reloc=2,class=CODE,delta=1
    30                           	psect	text10,global,reloc=2,class=CODE,delta=1
    31                           	psect	text11,global,reloc=2,class=CODE,delta=1
    32                           	psect	text12,global,reloc=2,class=CODE,delta=1
    33                           	psect	text13,global,reloc=2,class=CODE,delta=1
    34                           	psect	text14,global,reloc=2,class=CODE,delta=1
    35                           	psect	text15,global,reloc=2,class=CODE,delta=1
    36                           	psect	text16,global,reloc=2,class=CODE,delta=1
    37                           	psect	text17,global,reloc=2,class=CODE,delta=1
    38                           	psect	text18,global,reloc=2,class=CODE,delta=1
    39                           	psect	text19,global,reloc=2,class=CODE,delta=1
    40                           	psect	text20,global,reloc=2,class=CODE,delta=1
    41                           	psect	text21,global,reloc=2,class=CODE,delta=1
    42                           	psect	text22,global,reloc=2,class=CODE,delta=1
    43                           	psect	text23,global,reloc=2,class=CODE,delta=1
    44                           	psect	text24,global,reloc=2,class=CODE,delta=1
    45                           	psect	text25,global,reloc=2,class=CODE,delta=1
    46                           	psect	text26,global,reloc=2,class=CODE,delta=1
    47                           	psect	text27,global,reloc=2,class=CODE,delta=1
    48                           	psect	text28,global,reloc=2,class=CODE,delta=1
    49                           	psect	text29,global,reloc=2,class=CODE,delta=1
    50                           	psect	text30,global,reloc=2,class=CODE,delta=1
    51                           	psect	text31,global,reloc=2,class=CODE,delta=1
    52                           	psect	text32,global,reloc=2,class=CODE,delta=1
    53                           	psect	text33,global,reloc=2,class=CODE,delta=1
    54                           	psect	text34,global,reloc=2,class=CODE,delta=1
    55                           	psect	text35,global,reloc=2,class=CODE,delta=1
    56                           	psect	text36,global,reloc=2,class=CODE,delta=1
    57                           	psect	text37,global,reloc=2,class=CODE,delta=1
    58                           	psect	text38,global,reloc=2,class=CODE,delta=1
    59                           	psect	text39,global,reloc=2,class=CODE,delta=1
    60                           	psect	text40,global,reloc=2,class=CODE,delta=1
    61                           	psect	text41,global,reloc=2,class=CODE,delta=1
    62                           	psect	text42,global,reloc=2,class=CODE,delta=1
    63                           	psect	text43,global,reloc=2,class=CODE,delta=1
    64                           	psect	intcode,global,reloc=2,class=CODE,delta=1
    65                           	psect	text45,global,reloc=2,class=CODE,delta=1
    66                           	psect	text46,global,reloc=2,class=CODE,delta=1
    67                           	psect	text47,global,reloc=2,class=CODE,delta=1
    68                           	psect	intsave_regs,global,class=BIGRAM,space=1,delta=1
    69                           	psect	text48,global,reloc=2,class=CODE,delta=1
    70                           	psect	rparam,global,class=COMRAM,space=1,delta=1
    71  0000                     
    72                           	psect	idataCOMRAM
    73  0029D4                     __pidataCOMRAM:
    74                           	opt stack 0
    75                           
    76                           ;initializer for _freg_acc_x
    77  0029D4  FAF1               	dw	64241
    78  0029D6  FFFF               	dw	65535
    79                           
    80                           ;initializer for _freg_acc_y
    81  0029D8  FEC5               	dw	65221
    82  0029DA  FFFF               	dw	65535
    83                           
    84                           ;initializer for _freg_acc_z
    85  0029DC  14FF               	dw	5375
    86  0029DE  0000               	dw	0
    87                           
    88                           	psect	idataBANK0
    89  0029E0                     __pidataBANK0:
    90                           	opt stack 0
    91                           
    92                           ;initializer for _freg_mag_x
    93  0029E0  FF79               	dw	65401
    94  0029E2  FFFF               	dw	65535
    95                           
    96                           ;initializer for _freg_mag_y
    97  0029E4  041F               	dw	1055
    98  0029E6  0000               	dw	0
    99                           
   100                           ;initializer for _freg_mag_z
   101  0029E8  29E5               	dw	10725
   102  0029EA  0000               	dw	0
   103                           
   104                           	psect	idataBANK1
   105  0029EC                     __pidataBANK1:
   106                           	opt stack 0
   107                           
   108                           ;initializer for _time
   109  0029EC  01                 	db	1
   110                           
   111                           	psect	smallconst
   112  000600                     __psmallconst:
   113                           	opt stack 0
   114  000600  00                 	db	0
   115  000601                     _dpowers:
   116                           	opt stack 0
   117  000601  0001               	dw	1
   118  000603  000A               	dw	10
   119  000605  0064               	dw	100
   120  000607  03E8               	dw	1000
   121  000609  2710               	dw	10000
   122  00060B                     __end_of_dpowers:
   123                           	opt stack 0
   124  00060B                     main@F8439:
   125                           	opt stack 0
   126  00060B  2C                 	db	44
   127  00060C  00                 	db	0
   128  00060D                     __end_ofmain@F8439:
   129                           	opt stack 0
   130  00060D                     log@coeff:
   131                           	opt stack 0
   132  00060D  00                 	db	0
   133  00060E  00                 	db	0
   134  00060F  00                 	db	0
   135  000610  00                 	db	0
   136  000611  80                 	db	128
   137  000612  3F                 	db	63
   138  000613  F0                 	db	240
   139  000614  FF                 	db	255
   140  000615  BE                 	db	190
   141  000616  E2                 	db	226
   142  000617  A9                 	db	169
   143  000618  3E                 	db	62
   144  000619  83                 	db	131
   145  00061A  76                 	db	118
   146  00061B  BE                 	db	190
   147  00061C  AE                 	db	174
   148  00061D  2B                 	db	43
   149  00061E  3E                 	db	62
   150  00061F  3C                 	db	60
   151  000620  C3                 	db	195
   152  000621  BD                 	db	189
   153  000622  D2                 	db	210
   154  000623  13                 	db	19
   155  000624  3D                 	db	61
   156  000625  78                 	db	120
   157  000626  D3                 	db	211
   158  000627  BB                 	db	187
   159  000628                     __end_oflog@coeff:
   160                           	opt stack 0
   161  000628                     atan@coeff_a:
   162                           	opt stack 0
   163  000628  3C                 	db	60
   164  000629  04                 	db	4
   165  00062A  42                 	db	66
   166  00062B  9F                 	db	159
   167  00062C  6A                 	db	106
   168  00062D  42                 	db	66
   169  00062E  90                 	db	144
   170  00062F  01                 	db	1
   171  000630  42                 	db	66
   172  000631  4D                 	db	77
   173  000632  BB                 	db	187
   174  000633  40                 	db	64
   175  000634  EC                 	db	236
   176  000635  47                 	db	71
   177  000636  3E                 	db	62
   178  000637  8E                 	db	142
   179  000638  1F                 	db	31
   180  000639  BB                 	db	187
   181  00063A                     __end_ofatan@coeff_a:
   182                           	opt stack 0
   183  00063A                     atan@coeff_b:
   184                           	opt stack 0
   185  00063A  3C                 	db	60
   186  00063B  04                 	db	4
   187  00063C  42                 	db	66
   188  00063D  5A                 	db	90
   189  00063E  8B                 	db	139
   190  00063F  42                 	db	66
   191  000640  04                 	db	4
   192  000641  44                 	db	68
   193  000642  42                 	db	66
   194  000643  9C                 	db	156
   195  000644  4F                 	db	79
   196  000645  41                 	db	65
   197  000646  00                 	db	0
   198  000647  80                 	db	128
   199  000648  3F                 	db	63
   200  000649                     __end_ofatan@coeff_b:
   201                           	opt stack 0
   202  0000                     _ADRES	set	4035
   203  0000                     _TMR0	set	4054
   204  0000                     _TMR1	set	4046
   205  0000                     _ADCON0	set	4034
   206  0000                     _ADCON0bits	set	4034
   207  0000                     _ADCON1	set	4033
   208  0000                     _ADCON2	set	4032
   209  0000                     _ANSELA	set	3896
   210  0000                     _ANSELB	set	3897
   211  0000                     _ANSELC	set	3898
   212  0000                     _ANSELD	set	3899
   213  0000                     _ANSELE	set	3900
   214  0000                     _CCP1CON	set	4029
   215  0000                     _CCP2CON	set	3942
   216  0000                     _CCP3CON	set	3933
   217  0000                     _CCP4CON	set	3927
   218  0000                     _CCPR1L	set	4030
   219  0000                     _CCPR2L	set	3943
   220  0000                     _CCPR3L	set	3934
   221  0000                     _CCPR4L	set	3928
   222  0000                     _CCPTMRS0	set	3913
   223  0000                     _CCPTMRS1	set	3912
   224  0000                     _ECCP1AS	set	4022
   225  0000                     _ECCP2AS	set	3940
   226  0000                     _ECCP3AS	set	3931
   227  0000                     _INTCON	set	4082
   228  0000                     _INTCONbits	set	4082
   229  0000                     _LATAbits	set	3977
   230  0000                     _LATBbits	set	3978
   231  0000                     _LATCbits	set	3979
   232  0000                     _LATDbits	set	3980
   233  0000                     _LATEbits	set	3981
   234  0000                     _PIE1	set	3997
   235  0000                     _PIE1bits	set	3997
   236  0000                     _PIE2bits	set	4000
   237  0000                     _PIR1bits	set	3998
   238  0000                     _PIR2bits	set	4001
   239  0000                     _PIR3bits	set	4004
   240  0000                     _PORTA	set	3968
   241  0000                     _PORTB	set	3969
   242  0000                     _PORTBbits	set	3969
   243  0000                     _PORTC	set	3970
   244  0000                     _PORTD	set	3971
   245  0000                     _PORTE	set	3972
   246  0000                     _PSTR1CON	set	4025
   247  0000                     _PSTR2CON	set	3939
   248  0000                     _PSTR3CON	set	3930
   249  0000                     _RCON	set	4048
   250  0000                     _RCREG	set	4014
   251  0000                     _RCSTA1	set	4011
   252  0000                     _RCSTA1bits	set	4011
   253  0000                     _SPBRG1	set	4015
   254  0000                     _SPBRGH1	set	4016
   255  0000                     _SSP1ADD	set	4040
   256  0000                     _SSP1BUF	set	4041
   257  0000                     _SSP1CON1	set	4038
   258  0000                     _SSP1CON1bits	set	4038
   259  0000                     _SSP1CON2	set	4037
   260  0000                     _SSP1CON2bits	set	4037
   261  0000                     _SSP1STAT	set	4039
   262  0000                     _SSP1STATbits	set	4039
   263  0000                     _T0CON	set	4053
   264  0000                     _T1CON	set	4045
   265  0000                     _T2CON	set	4026
   266  0000                     _T4CON	set	3921
   267  0000                     _TRISA	set	3986
   268  0000                     _TRISB	set	3987
   269  0000                     _TRISC	set	3988
   270  0000                     _TRISD	set	3989
   271  0000                     _TRISE	set	3990
   272  0000                     _TXREG1	set	4013
   273  0000                     _TXSTA1	set	4012
   274  0000                     _TXSTA1bits	set	4012
   275  0000                     _OSCFIF	set	32015
   276  000649                     __stringdata:
   277                           	opt stack 0
   278  000649                     STR_1:
   279  000649  25                 	db	37
   280  00064A  64                 	db	100	;'d'
   281  00064B  2C                 	db	44
   282  00064C  25                 	db	37
   283  00064D  64                 	db	100	;'d'
   284  00064E  2C                 	db	44
   285  00064F  25                 	db	37
   286  000650  64                 	db	100	;'d'
   287  000651  2C                 	db	44
   288  000652  25                 	db	37
   289  000653  64                 	db	100	;'d'
   290  000654  2C                 	db	44
   291  000655  25                 	db	37
   292  000656  64                 	db	100	;'d'
   293  000657  2C                 	db	44
   294  000658  25                 	db	37
   295  000659  64                 	db	100	;'d'
   296  00065A  2C                 	db	44
   297  00065B  25                 	db	37
   298  00065C  64                 	db	100	;'d'
   299  00065D  2C                 	db	44
   300  00065E  25                 	db	37
   301  00065F  64                 	db	100	;'d'
   302  000660  2C                 	db	44
   303  000661  25                 	db	37
   304  000662  64                 	db	100	;'d'
   305  000663  2C                 	db	44
   306  000664  25                 	db	37
   307  000665  64                 	db	100	;'d'
   308  000666  2C                 	db	44
   309  000667  25                 	db	37
   310  000668  64                 	db	100	;'d'
   311  000669  2C                 	db	44
   312  00066A  25                 	db	37
   313  00066B  64                 	db	100	;'d'
   314  00066C  20                 	db	32
   315  00066D  00                 	db	0
   316  00066E                     STR_2:
   317  00066E  2C                 	db	44
   318  00066F  00                 	db	0
   319  000670                     __end_of__stringdata:
   320                           	opt stack 0
   321                           
   322                           ; #config settings
   323  000670  00                 	db	0	; dummy byte at the end
   324  0000                     
   325                           	psect	cinit
   326  00232A                     __pcinit:
   327                           	opt stack 0
   328  00232A                     start_initialization:
   329                           	opt stack 0
   330  00232A                     __initialization:
   331                           	opt stack 0
   332                           
   333                           ; Clear objects allocated to BANK1 (77 bytes)
   334  00232A  EE01  F070         	lfsr	0,__pbssBANK1
   335  00232E  0E4D               	movlw	77
   336  002330                     clear_0:
   337  002330  6AEE               	clrf	postinc0,c
   338  002332  06E8               	decf	wreg,f,c
   339  002334  E1FD               	bnz	clear_0
   340                           
   341                           ; Clear objects allocated to BANK0 (65 bytes)
   342  002336  EE00  F0B1         	lfsr	0,__pbssBANK0
   343  00233A  0E41               	movlw	65
   344  00233C                     clear_1:
   345  00233C  6AEE               	clrf	postinc0,c
   346  00233E  06E8               	decf	wreg,f,c
   347  002340  E1FD               	bnz	clear_1
   348                           
   349                           ; Clear objects allocated to BITCOMRAM (1 bytes)
   350  002342  6A3F               	clrf	(__pbitbssCOMRAM/(0+8))& (0+255),c
   351                           
   352                           ; Clear objects allocated to COMRAM (7 bytes)
   353  002344  EE00  F040         	lfsr	0,__pbssCOMRAM
   354  002348  0E07               	movlw	7
   355  00234A                     clear_2:
   356  00234A  6AEE               	clrf	postinc0,c
   357  00234C  06E8               	decf	wreg,f,c
   358  00234E  E1FD               	bnz	clear_2
   359                           
   360                           ; Initialize objects allocated to BANK1 (1 bytes)
   361                           ; load TBLPTR registers with __pidataBANK1
   362  002350  0EEC               	movlw	low __pidataBANK1
   363  002352  6EF6               	movwf	tblptrl,c
   364  002354  0E29               	movlw	high __pidataBANK1
   365  002356  6EF7               	movwf	tblptrh,c
   366  002358  0E00               	movlw	low (__pidataBANK1 shr (0+16))
   367  00235A  6EF8               	movwf	tblptru,c
   368  00235C  0009               	tblrd		*+	;fetch initializer
   369  00235E  CFF5 F1BD          	movff	tablat,__pdataBANK1
   370                           
   371                           ; Initialize objects allocated to BANK0 (12 bytes)
   372                           ; load TBLPTR registers with __pidataBANK0
   373  002362  0EE0               	movlw	low __pidataBANK0
   374  002364  6EF6               	movwf	tblptrl,c
   375  002366  0E29               	movlw	high __pidataBANK0
   376  002368  6EF7               	movwf	tblptrh,c
   377  00236A  0E00               	movlw	low (__pidataBANK0 shr (0+16))
   378  00236C  6EF8               	movwf	tblptru,c
   379  00236E  EE00  F0F2         	lfsr	0,__pdataBANK0
   380  002372  EE10 F00C          	lfsr	1,12
   381  002376                     copy_data0:
   382  002376  0009               	tblrd		*+
   383  002378  CFF5 FFEE          	movff	tablat,postinc0
   384  00237C  50E5               	movf	postdec1,w,c
   385  00237E  50E1               	movf	fsr1l,w,c
   386  002380  E1FA               	bnz	copy_data0
   387                           
   388                           ; Initialize objects allocated to COMRAM (12 bytes)
   389                           ; load TBLPTR registers with __pidataCOMRAM
   390  002382  0ED4               	movlw	low __pidataCOMRAM
   391  002384  6EF6               	movwf	tblptrl,c
   392  002386  0E29               	movlw	high __pidataCOMRAM
   393  002388  6EF7               	movwf	tblptrh,c
   394  00238A  0E00               	movlw	low (__pidataCOMRAM shr (0+16))
   395  00238C  6EF8               	movwf	tblptru,c
   396  00238E  EE00  F033         	lfsr	0,__pdataCOMRAM
   397  002392  EE10 F00C          	lfsr	1,12
   398  002396                     copy_data1:
   399  002396  0009               	tblrd		*+
   400  002398  CFF5 FFEE          	movff	tablat,postinc0
   401  00239C  50E5               	movf	postdec1,w,c
   402  00239E  50E1               	movf	fsr1l,w,c
   403  0023A0  E1FA               	bnz	copy_data1
   404  0023A2                     end_of_initialization:
   405                           	opt stack 0
   406  0023A2                     __end_of__initialization:
   407                           	opt stack 0
   408  0023A2  0E00               	movlw	low (__Lmediumconst shr (0+16))
   409  0023A4  6EF8               	movwf	tblptru,c
   410  0023A6  0100               	movlb	0
   411  0023A8  EF39  F003         	goto	_main	;jump to C main() function
   412                           tblptru	equ	0xFF8
   413                           tblptrh	equ	0xFF7
   414                           tblptrl	equ	0xFF6
   415                           tablat	equ	0xFF5
   416                           postinc0	equ	0xFEE
   417                           wreg	equ	0xFE8
   418                           postdec1	equ	0xFE5
   419                           fsr1l	equ	0xFE1
   420                           
   421                           	psect	bitbssCOMRAM
   422  0001F8                     __pbitbssCOMRAM:
   423                           	opt stack 0
   424  0001F8                     _leak1_flag:
   425                           	opt stack 0
   426  0001F8                     	ds	1
   427  0001F9                     _leak2_flag:
   428                           	opt stack 0
   429  0001F9                     	ds	1
   430  0001FA                     _rx1_flag:
   431                           	opt stack 0
   432  0001FA                     	ds	1
   433  0001FB                     _rx2_flag:
   434                           	opt stack 0
   435  0001FB                     	ds	1
   436  0001FC                     _tmr0_flag:
   437                           	opt stack 0
   438  0001FC                     	ds	1
   439  0001FD                     _tmr1_flag:
   440                           	opt stack 0
   441  0001FD                     	ds	1
   442  0001FE                     _tmr2_flag:
   443                           	opt stack 0
   444  0001FE                     	ds	1
   445  0001FF                     _tmr3_flag:
   446                           	opt stack 0
   447  0001FF                     	ds	1
   448                           tblptru	equ	0xFF8
   449                           tblptrh	equ	0xFF7
   450                           tblptrl	equ	0xFF6
   451                           tablat	equ	0xFF5
   452                           postinc0	equ	0xFEE
   453                           wreg	equ	0xFE8
   454                           postdec1	equ	0xFE5
   455                           fsr1l	equ	0xFE1
   456                           
   457                           	psect	bssCOMRAM
   458  000040                     __pbssCOMRAM:
   459                           	opt stack 0
   460  000040                     strtok@sp:
   461                           	opt stack 0
   462  000040                     	ds	2
   463  000042                     _USART1_Status:
   464                           	opt stack 0
   465  000042                     	ds	1
   466  000043                     __gaddress:
   467                           	opt stack 0
   468  000043                     	ds	1
   469  000044                     __xmaddress:
   470                           	opt stack 0
   471  000044                     	ds	1
   472  000045                     _rx1_255_flag:
   473                           	opt stack 0
   474  000045                     	ds	1
   475  000046                     _rx1_count:
   476                           	opt stack 0
   477  000046                     	ds	1
   478                           tblptru	equ	0xFF8
   479                           tblptrh	equ	0xFF7
   480                           tblptrl	equ	0xFF6
   481                           tablat	equ	0xFF5
   482                           postinc0	equ	0xFEE
   483                           wreg	equ	0xFE8
   484                           postdec1	equ	0xFE5
   485                           fsr1l	equ	0xFE1
   486                           
   487                           	psect	dataCOMRAM
   488  000033                     __pdataCOMRAM:
   489                           	opt stack 0
   490  000033                     _freg_acc_x:
   491                           	opt stack 0
   492  000033                     	ds	4
   493  000037                     _freg_acc_y:
   494                           	opt stack 0
   495  000037                     	ds	4
   496  00003B                     _freg_acc_z:
   497                           	opt stack 0
   498  00003B                     	ds	4
   499                           tblptru	equ	0xFF8
   500                           tblptrh	equ	0xFF7
   501                           tblptrl	equ	0xFF6
   502                           tablat	equ	0xFF5
   503                           postinc0	equ	0xFEE
   504                           wreg	equ	0xFE8
   505                           postdec1	equ	0xFE5
   506                           fsr1l	equ	0xFE1
   507                           
   508                           	psect	bssBANK0
   509  0000B1                     __pbssBANK0:
   510                           	opt stack 0
   511  0000B1                     _gyro:
   512                           	opt stack 0
   513  0000B1                     	ds	6
   514  0000B7                     _errno:
   515                           	opt stack 0
   516  0000B7                     	ds	2
   517  0000B9                     _rx1_buff:
   518                           	opt stack 0
   519  0000B9                     	ds	45
   520  0000E6                     _accel:
   521                           	opt stack 0
   522  0000E6                     	ds	6
   523  0000EC                     _mag:
   524                           	opt stack 0
   525  0000EC                     	ds	6
   526                           tblptru	equ	0xFF8
   527                           tblptrh	equ	0xFF7
   528                           tblptrl	equ	0xFF6
   529                           tablat	equ	0xFF5
   530                           postinc0	equ	0xFEE
   531                           wreg	equ	0xFE8
   532                           postdec1	equ	0xFE5
   533                           fsr1l	equ	0xFE1
   534                           
   535                           	psect	dataBANK0
   536  0000F2                     __pdataBANK0:
   537                           	opt stack 0
   538  0000F2                     _freg_mag_x:
   539                           	opt stack 0
   540  0000F2                     	ds	4
   541  0000F6                     _freg_mag_y:
   542                           	opt stack 0
   543  0000F6                     	ds	4
   544  0000FA                     _freg_mag_z:
   545                           	opt stack 0
   546  0000FA                     	ds	4
   547                           tblptru	equ	0xFF8
   548                           tblptrh	equ	0xFF7
   549                           tblptrl	equ	0xFF6
   550                           tablat	equ	0xFF5
   551                           postinc0	equ	0xFEE
   552                           wreg	equ	0xFE8
   553                           postdec1	equ	0xFE5
   554                           fsr1l	equ	0xFE1
   555                           
   556                           	psect	bssBANK1
   557  000170                     __pbssBANK1:
   558                           	opt stack 0
   559  000170                     main@F8436:
   560                           	opt stack 0
   561  000170                     	ds	30
   562  00018E                     _comms_time:
   563                           	opt stack 0
   564  00018E                     	ds	2
   565  000190                     _rx_temp_buff:
   566                           	opt stack 0
   567  000190                     	ds	45
   568                           tblptru	equ	0xFF8
   569                           tblptrh	equ	0xFF7
   570                           tblptrl	equ	0xFF6
   571                           tablat	equ	0xFF5
   572                           postinc0	equ	0xFEE
   573                           wreg	equ	0xFE8
   574                           postdec1	equ	0xFE5
   575                           fsr1l	equ	0xFE1
   576                           
   577                           	psect	dataBANK1
   578  0001BD                     __pdataBANK1:
   579                           	opt stack 0
   580  0001BD                     _time:
   581                           	opt stack 0
   582  0001BD                     	ds	1
   583                           tblptru	equ	0xFF8
   584                           tblptrh	equ	0xFF7
   585                           tblptrl	equ	0xFF6
   586                           tablat	equ	0xFF5
   587                           postinc0	equ	0xFEE
   588                           wreg	equ	0xFE8
   589                           postdec1	equ	0xFE5
   590                           fsr1l	equ	0xFE1
   591                           
   592                           	psect	cstackBANK1
   593  000100                     __pcstackBANK1:
   594                           	opt stack 0
   595  000100                     main@surf_buff:
   596                           	opt stack 0
   597                           
   598                           ; 60 bytes @ 0x0
   599  000100                     	ds	60
   600  00013C                     main@delimit:
   601                           	opt stack 0
   602                           
   603                           ; 2 bytes @ 0x3C
   604  00013C                     	ds	2
   605  00013E                     main@depth:
   606                           	opt stack 0
   607                           
   608                           ; 2 bytes @ 0x3E
   609  00013E                     	ds	2
   610  000140                     main@ex_temp:
   611                           	opt stack 0
   612                           
   613                           ; 2 bytes @ 0x40
   614  000140                     	ds	2
   615  000142                     main@main_current:
   616                           	opt stack 0
   617                           
   618                           ; 2 bytes @ 0x42
   619  000142                     	ds	2
   620  000144                     main@input:
   621                           	opt stack 0
   622                           
   623                           ; 30 bytes @ 0x44
   624  000144                     	ds	30
   625  000162                     main@comms_timed_out:
   626                           	opt stack 0
   627                           
   628                           ; 1 bytes @ 0x62
   629  000162                     	ds	1
   630  000163                     main@int_temp:
   631                           	opt stack 0
   632                           
   633                           ; 2 bytes @ 0x63
   634  000163                     	ds	2
   635  000165                     main@v_current:
   636                           	opt stack 0
   637                           
   638                           ; 2 bytes @ 0x65
   639  000165                     	ds	2
   640  000167                     main@token:
   641                           	opt stack 0
   642                           
   643                           ; 2 bytes @ 0x67
   644  000167                     	ds	2
   645  000169                     main@check_recv:
   646                           	opt stack 0
   647                           
   648                           ; 2 bytes @ 0x69
   649  000169                     	ds	2
   650  00016B                     main@int_press:
   651                           	opt stack 0
   652                           
   653                           ; 2 bytes @ 0x6B
   654  00016B                     	ds	2
   655  00016D                     main@check:
   656                           	opt stack 0
   657                           
   658                           ; 2 bytes @ 0x6D
   659  00016D                     	ds	2
   660  00016F                     main@in_count:
   661                           	opt stack 0
   662                           
   663                           ; 1 bytes @ 0x6F
   664  00016F                     	ds	1
   665                           tblptru	equ	0xFF8
   666                           tblptrh	equ	0xFF7
   667                           tblptrl	equ	0xFF6
   668                           tablat	equ	0xFF5
   669                           postinc0	equ	0xFEE
   670                           wreg	equ	0xFE8
   671                           postdec1	equ	0xFE5
   672                           fsr1l	equ	0xFE1
   673                           
   674                           	psect	cstackBANK0
   675  000060                     __pcstackBANK0:
   676                           	opt stack 0
   677  000060                     ?_sprintf:
   678                           	opt stack 0
   679  000060                     ?___ftdiv:
   680                           	opt stack 0
   681  000060                     sprintf@sp:
   682                           	opt stack 0
   683  000060                     ___ftdiv@f1:
   684                           	opt stack 0
   685                           
   686                           ; 3 bytes @ 0x0
   687  000060                     	ds	2
   688  000062                     sprintf@f:
   689                           	opt stack 0
   690                           
   691                           ; 2 bytes @ 0x2
   692  000062                     	ds	1
   693  000063                     ___ftdiv@f2:
   694                           	opt stack 0
   695                           
   696                           ; 3 bytes @ 0x3
   697  000063                     	ds	3
   698  000066                     ?___ftmul:
   699                           	opt stack 0
   700  000066                     ___ftmul@f1:
   701                           	opt stack 0
   702                           
   703                           ; 3 bytes @ 0x6
   704  000066                     	ds	3
   705  000069                     ___ftmul@f2:
   706                           	opt stack 0
   707                           
   708                           ; 3 bytes @ 0x9
   709  000069                     	ds	3
   710  00006C                     ??___ftmul:
   711                           
   712                           ; 0 bytes @ 0xC
   713  00006C                     	ds	9
   714  000075                     ___ftmul@exp:
   715                           	opt stack 0
   716                           
   717                           ; 1 bytes @ 0x15
   718  000075                     	ds	1
   719  000076                     ___ftmul@f3_as_product:
   720                           	opt stack 0
   721                           
   722                           ; 3 bytes @ 0x16
   723  000076                     	ds	3
   724  000079                     ___ftmul@cntr:
   725                           	opt stack 0
   726                           
   727                           ; 1 bytes @ 0x19
   728  000079                     	ds	1
   729  00007A                     ___ftmul@sign:
   730                           	opt stack 0
   731                           
   732                           ; 1 bytes @ 0x1A
   733  00007A                     	ds	1
   734  00007B                     ?___ftadd:
   735                           	opt stack 0
   736  00007B                     ?___fttol:
   737                           	opt stack 0
   738  00007B                     ___ftadd@f1:
   739                           	opt stack 0
   740  00007B                     ___fttol@f1:
   741                           	opt stack 0
   742                           
   743                           ; 3 bytes @ 0x1B
   744  00007B                     	ds	3
   745  00007E                     ___ftadd@f2:
   746                           	opt stack 0
   747                           
   748                           ; 3 bytes @ 0x1E
   749  00007E                     	ds	1
   750  00007F                     ??___fttol:
   751                           
   752                           ; 0 bytes @ 0x1F
   753  00007F                     	ds	2
   754  000081                     ??___ftadd:
   755                           
   756                           ; 0 bytes @ 0x21
   757  000081                     	ds	3
   758  000084                     ___fttol@sign1:
   759                           	opt stack 0
   760                           
   761                           ; 1 bytes @ 0x24
   762  000084                     	ds	1
   763  000085                     ___fttol@lval:
   764                           	opt stack 0
   765                           
   766                           ; 4 bytes @ 0x25
   767  000085                     	ds	2
   768  000087                     ___ftadd@sign:
   769                           	opt stack 0
   770                           
   771                           ; 1 bytes @ 0x27
   772  000087                     	ds	1
   773  000088                     ___ftadd@exp2:
   774                           	opt stack 0
   775                           
   776                           ; 1 bytes @ 0x28
   777  000088                     	ds	1
   778  000089                     ___ftadd@exp1:
   779                           	opt stack 0
   780  000089                     ___fttol@exp1:
   781                           	opt stack 0
   782                           
   783                           ; 1 bytes @ 0x29
   784  000089                     	ds	1
   785  00008A                     ?_Tomcat_Depth:
   786                           	opt stack 0
   787  00008A                     ?_Tomcat_Press_Int:
   788                           	opt stack 0
   789  00008A                     ?_Tomcat_Temp:
   790                           	opt stack 0
   791  00008A                     ?_eval_poly:
   792                           	opt stack 0
   793  00008A                     Thruster_Driver@input:
   794                           	opt stack 0
   795  00008A                     eval_poly@x:
   796                           	opt stack 0
   797                           
   798                           ; 3 bytes @ 0x2A
   799  00008A                     	ds	2
   800  00008C                     ??_Tomcat_Depth:
   801  00008C                     ??_Tomcat_Press_Int:
   802  00008C                     ??_Tomcat_Temp:
   803  00008C                     Thruster_Driver@thruster:
   804                           	opt stack 0
   805                           
   806                           ; 1 bytes @ 0x2C
   807  00008C                     	ds	1
   808  00008D                     ??_Thruster_Driver:
   809  00008D                     eval_poly@d:
   810                           	opt stack 0
   811                           
   812                           ; 2 bytes @ 0x2D
   813  00008D                     	ds	2
   814  00008F                     eval_poly@n:
   815                           	opt stack 0
   816                           
   817                           ; 2 bytes @ 0x2F
   818  00008F                     	ds	1
   819  000090                     Tomcat_Depth@depth:
   820                           	opt stack 0
   821  000090                     Tomcat_Press_Int@press:
   822                           	opt stack 0
   823  000090                     Tomcat_Temp@temp:
   824                           	opt stack 0
   825                           
   826                           ; 3 bytes @ 0x30
   827  000090                     	ds	1
   828  000091                     ??_eval_poly:
   829                           
   830                           ; 0 bytes @ 0x31
   831  000091                     	ds	1
   832  000092                     Tomcat_Depth@tempPress:
   833                           	opt stack 0
   834  000092                     Tomcat_Press_Int@temp:
   835                           	opt stack 0
   836                           
   837                           ; 3 bytes @ 0x32
   838  000092                     	ds	1
   839  000093                     Thruster_Driver@dir:
   840                           	opt stack 0
   841                           
   842                           ; 1 bytes @ 0x33
   843  000093                     	ds	1
   844  000094                     Thruster_Driver@dc:
   845                           	opt stack 0
   846                           
   847                           ; 2 bytes @ 0x34
   848  000094                     	ds	2
   849  000096                     eval_poly@res:
   850                           	opt stack 0
   851                           
   852                           ; 3 bytes @ 0x36
   853  000096                     	ds	3
   854  000099                     ?_log:
   855                           	opt stack 0
   856  000099                     log@x:
   857                           	opt stack 0
   858                           
   859                           ; 3 bytes @ 0x39
   860  000099                     	ds	5
   861  00009E                     log@exponent:
   862                           	opt stack 0
   863                           
   864                           ; 2 bytes @ 0x3E
   865  00009E                     	ds	2
   866  0000A0                     ?___ftneg:
   867                           	opt stack 0
   868  0000A0                     ___ftneg@f1:
   869                           	opt stack 0
   870                           
   871                           ; 3 bytes @ 0x40
   872  0000A0                     	ds	3
   873  0000A3                     ?_Tomcat_Temp_Ex:
   874                           	opt stack 0
   875                           
   876                           ; 2 bytes @ 0x43
   877  0000A3                     	ds	2
   878  0000A5                     ??_Tomcat_Temp_Ex:
   879                           
   880                           ; 0 bytes @ 0x45
   881  0000A5                     	ds	4
   882  0000A9                     _Tomcat_Temp_Ex$3487:
   883                           	opt stack 0
   884                           
   885                           ; 3 bytes @ 0x49
   886  0000A9                     	ds	3
   887  0000AC                     Tomcat_Temp_Ex@temp:
   888                           	opt stack 0
   889                           
   890                           ; 3 bytes @ 0x4C
   891  0000AC                     	ds	3
   892  0000AF                     ??_main:
   893                           
   894                           ; 0 bytes @ 0x4F
   895  0000AF                     	ds	2
   896                           tblptru	equ	0xFF8
   897                           tblptrh	equ	0xFF7
   898                           tblptrl	equ	0xFF6
   899                           tablat	equ	0xFF5
   900                           postinc0	equ	0xFEE
   901                           wreg	equ	0xFE8
   902                           postdec1	equ	0xFE5
   903                           fsr1l	equ	0xFE1
   904                           
   905                           	psect	cstackCOMRAM
   906  000001                     __pcstackCOMRAM:
   907                           	opt stack 0
   908  000001                     i2Write1USART@data:
   909                           	opt stack 0
   910  000001                     strcpy@to:
   911                           	opt stack 0
   912                           
   913                           ; 2 bytes @ 0x0
   914  000001                     	ds	1
   915  000002                     i2Tomcat_TX_error@code:
   916                           	opt stack 0
   917                           
   918                           ; 1 bytes @ 0x1
   919  000002                     	ds	1
   920  000003                     strcpy@from:
   921                           	opt stack 0
   922                           
   923                           ; 2 bytes @ 0x2
   924  000003                     	ds	2
   925  000005                     strcpy@cp:
   926                           	opt stack 0
   927                           
   928                           ; 2 bytes @ 0x4
   929  000005                     	ds	2
   930  000007                     ??_isr:
   931                           
   932                           ; 0 bytes @ 0x6
   933  000007                     	ds	15
   934  000016                     ??_isdigit:
   935  000016                     ?_strlen:
   936                           	opt stack 0
   937  000016                     ?_analogRead:
   938                           	opt stack 0
   939  000016                     ?_strchr:
   940                           	opt stack 0
   941  000016                     ?___awmod:
   942                           	opt stack 0
   943  000016                     ?___lwdiv:
   944                           	opt stack 0
   945  000016                     ?___ftpack:
   946                           	opt stack 0
   947  000016                     ?_frexp:
   948                           	opt stack 0
   949  000016                     Write1USART@data:
   950                           	opt stack 0
   951  000016                     OpenI2C1@slew:
   952                           	opt stack 0
   953  000016                     Tomcat_Claw@grip:
   954                           	opt stack 0
   955  000016                     SetDCEPWM1@dutycycle:
   956                           	opt stack 0
   957  000016                     SetDCEPWM2@dutycycle:
   958                           	opt stack 0
   959  000016                     SetDCEPWM3@dutycycle:
   960                           	opt stack 0
   961  000016                     SetDCPWM4@dutycycle:
   962                           	opt stack 0
   963  000016                     Open1USART@spbrg:
   964                           	opt stack 0
   965  000016                     ___awmod@dividend:
   966                           	opt stack 0
   967  000016                     ___lwdiv@dividend:
   968                           	opt stack 0
   969  000016                     strlen@s:
   970                           	opt stack 0
   971  000016                     strchr@ptr:
   972                           	opt stack 0
   973  000016                     ___ftpack@arg:
   974                           	opt stack 0
   975  000016                     frexp@value:
   976                           	opt stack 0
   977                           
   978                           ; 3 bytes @ 0x15
   979  000016                     	ds	1
   980  000017                     Tomcat_TX_warn@code:
   981                           	opt stack 0
   982  000017                     Tomcat_TX_error@code:
   983                           	opt stack 0
   984  000017                     OpenI2C1@sync_mode:
   985                           	opt stack 0
   986  000017                     _isdigit$3035:
   987                           	opt stack 0
   988  000017                     puts1USART@data:
   989                           	opt stack 0
   990                           
   991                           ; 2 bytes @ 0x16
   992  000017                     	ds	1
   993  000018                     ??_strlen:
   994  000018                     ??_analogRead:
   995  000018                     ??_Open1USART:
   996  000018                     ??_SetDCEPWM1:
   997  000018                     ??_SetDCEPWM2:
   998  000018                     ??_SetDCEPWM3:
   999  000018                     ??_SetDCPWM4:
  1000  000018                     isdigit@c:
  1001                           	opt stack 0
  1002  000018                     Tomcat_Claw@wrist:
  1003                           	opt stack 0
  1004  000018                     ___awmod@divisor:
  1005                           	opt stack 0
  1006  000018                     ___lwdiv@divisor:
  1007                           	opt stack 0
  1008  000018                     strchr@chr:
  1009                           	opt stack 0
  1010                           
  1011                           ; 2 bytes @ 0x17
  1012  000018                     	ds	1
  1013  000019                     ___ftpack@exp:
  1014                           	opt stack 0
  1015  000019                     frexp@eptr:
  1016                           	opt stack 0
  1017                           
  1018                           ; 2 bytes @ 0x18
  1019  000019                     	ds	1
  1020  00001A                     ??___awmod:
  1021  00001A                     ??___lwdiv:
  1022  00001A                     ?_strspn:
  1023                           	opt stack 0
  1024  00001A                     ?_strcspn:
  1025                           	opt stack 0
  1026  00001A                     ___ftpack@sign:
  1027                           	opt stack 0
  1028  00001A                     SetDCEPWM1@DCycle:
  1029                           	opt stack 0
  1030  00001A                     SetDCEPWM2@DCycle:
  1031                           	opt stack 0
  1032  00001A                     SetDCEPWM3@DCycle:
  1033                           	opt stack 0
  1034  00001A                     SetDCPWM4@DCycle:
  1035                           	opt stack 0
  1036  00001A                     strlen@cp:
  1037                           	opt stack 0
  1038  00001A                     strcspn@s1:
  1039                           	opt stack 0
  1040  00001A                     strspn@s1:
  1041                           	opt stack 0
  1042                           
  1043                           ; 2 bytes @ 0x19
  1044  00001A                     	ds	1
  1045  00001B                     ??___ftpack:
  1046  00001B                     ??_frexp:
  1047  00001B                     Open1USART@config:
  1048                           	opt stack 0
  1049  00001B                     ___awmod@counter:
  1050                           	opt stack 0
  1051  00001B                     ___lwdiv@counter:
  1052                           	opt stack 0
  1053                           
  1054                           ; 1 bytes @ 0x1A
  1055  00001B                     	ds	1
  1056  00001C                     ??_Tomcat_Setup:
  1057  00001C                     analogRead@channel:
  1058                           	opt stack 0
  1059  00001C                     ___awmod@sign:
  1060                           	opt stack 0
  1061  00001C                     Tomcat_TX_data@tx_buff:
  1062                           	opt stack 0
  1063  00001C                     ___lwdiv@quotient:
  1064                           	opt stack 0
  1065  00001C                     strcspn@s2:
  1066                           	opt stack 0
  1067  00001C                     strspn@s2:
  1068                           	opt stack 0
  1069                           
  1070                           ; 2 bytes @ 0x1B
  1071  00001C                     	ds	1
  1072  00001D                     analogRead@num:
  1073                           	opt stack 0
  1074                           
  1075                           ; 2 bytes @ 0x1C
  1076  00001D                     	ds	1
  1077  00001E                     ??_strspn:
  1078  00001E                     ??_strcspn:
  1079  00001E                     ?___lwmod:
  1080                           	opt stack 0
  1081  00001E                     ?___awtoft:
  1082                           	opt stack 0
  1083  00001E                     Tomcat_TX_data@num_bytes:
  1084                           	opt stack 0
  1085  00001E                     ___awtoft@c:
  1086                           	opt stack 0
  1087  00001E                     ___lwmod@dividend:
  1088                           	opt stack 0
  1089                           
  1090                           ; 2 bytes @ 0x1D
  1091  00001E                     	ds	1
  1092  00001F                     ??_Tomcat_TX_data:
  1093  00001F                     ?___wmul:
  1094                           	opt stack 0
  1095  00001F                     ?___lwtoft:
  1096                           	opt stack 0
  1097  00001F                     Tomcat_Camera@pan:
  1098                           	opt stack 0
  1099  00001F                     ___lwtoft@c:
  1100                           	opt stack 0
  1101  00001F                     ___wmul@multiplier:
  1102                           	opt stack 0
  1103  00001F                     strcspn@i:
  1104                           	opt stack 0
  1105  00001F                     strspn@i:
  1106                           	opt stack 0
  1107                           
  1108                           ; 2 bytes @ 0x1E
  1109  00001F                     	ds	1
  1110  000020                     Tomcat_TX_data@k:
  1111                           	opt stack 0
  1112  000020                     ___lwmod@divisor:
  1113                           	opt stack 0
  1114                           
  1115                           ; 2 bytes @ 0x1F
  1116  000020                     	ds	1
  1117  000021                     ??___awtoft:
  1118  000021                     ?_strtok:
  1119                           	opt stack 0
  1120  000021                     Tomcat_Camera@tilt:
  1121                           	opt stack 0
  1122  000021                     strtok@s1:
  1123                           	opt stack 0
  1124  000021                     ___wmul@multiplicand:
  1125                           	opt stack 0
  1126                           
  1127                           ; 2 bytes @ 0x20
  1128  000021                     	ds	1
  1129  000022                     ??___lwmod:
  1130  000022                     ??___lwtoft:
  1131                           
  1132                           ; 0 bytes @ 0x21
  1133  000022                     	ds	1
  1134  000023                     ___awtoft@sign:
  1135                           	opt stack 0
  1136  000023                     ___lwmod@counter:
  1137                           	opt stack 0
  1138  000023                     Tomcat_Camera@pan_pos:
  1139                           	opt stack 0
  1140  000023                     strtok@s2:
  1141                           	opt stack 0
  1142                           
  1143                           ; 2 bytes @ 0x22
  1144  000023                     	ds	1
  1145  000024                     ??_sprintf:
  1146  000024                     ??___ftdiv:
  1147                           
  1148                           ; 0 bytes @ 0x23
  1149  000024                     	ds	1
  1150  000025                     Tomcat_Camera@tilt_pos:
  1151                           	opt stack 0
  1152  000025                     ___wmul@product:
  1153                           	opt stack 0
  1154                           
  1155                           ; 2 bytes @ 0x24
  1156  000025                     	ds	1
  1157  000026                     sprintf@ap:
  1158                           	opt stack 0
  1159                           
  1160                           ; 2 bytes @ 0x25
  1161  000026                     	ds	1
  1162  000027                     ?_atoi:
  1163                           	opt stack 0
  1164  000027                     atoi@s:
  1165                           	opt stack 0
  1166                           
  1167                           ; 2 bytes @ 0x26
  1168  000027                     	ds	1
  1169  000028                     sprintf@flag:
  1170                           	opt stack 0
  1171                           
  1172                           ; 1 bytes @ 0x27
  1173  000028                     	ds	1
  1174  000029                     ??_atoi:
  1175  000029                     sprintf@prec:
  1176                           	opt stack 0
  1177                           
  1178                           ; 1 bytes @ 0x28
  1179  000029                     	ds	1
  1180  00002A                     sprintf@_val:
  1181                           	opt stack 0
  1182                           
  1183                           ; 5 bytes @ 0x29
  1184  00002A                     	ds	1
  1185  00002B                     atoi@sign:
  1186                           	opt stack 0
  1187                           
  1188                           ; 1 bytes @ 0x2A
  1189  00002B                     	ds	1
  1190  00002C                     atoi@a:
  1191                           	opt stack 0
  1192                           
  1193                           ; 2 bytes @ 0x2B
  1194  00002C                     	ds	1
  1195  00002D                     ___ftdiv@cntr:
  1196                           	opt stack 0
  1197                           
  1198                           ; 1 bytes @ 0x2C
  1199  00002D                     	ds	1
  1200  00002E                     ___ftdiv@f3:
  1201                           	opt stack 0
  1202                           
  1203                           ; 3 bytes @ 0x2D
  1204  00002E                     	ds	1
  1205  00002F                     sprintf@c:
  1206                           	opt stack 0
  1207                           
  1208                           ; 1 bytes @ 0x2E
  1209  00002F                     	ds	2
  1210  000031                     ___ftdiv@exp:
  1211                           	opt stack 0
  1212                           
  1213                           ; 1 bytes @ 0x30
  1214  000031                     	ds	1
  1215  000032                     ___ftdiv@sign:
  1216                           	opt stack 0
  1217                           
  1218                           ; 1 bytes @ 0x31
  1219  000032                     	ds	1
  1220  000033                     tblptru	equ	0xFF8
  1221                           tblptrh	equ	0xFF7
  1222                           tblptrl	equ	0xFF6
  1223                           tablat	equ	0xFF5
  1224                           postinc0	equ	0xFEE
  1225                           wreg	equ	0xFE8
  1226                           postdec1	equ	0xFE5
  1227                           fsr1l	equ	0xFE1
  1228                           
  1229                           ; 0 bytes @ 0x32
  1230 ;;
  1231 ;;Main: autosize = 0, tempsize = 2, incstack = 0, save=0
  1232 ;;
  1233 ;; *************** function _main *****************
  1234 ;; Defined at:
  1235 ;;		line 65 in file "Tom_V_Main.c"
  1236 ;; Parameters:    Size  Location     Type
  1237 ;;		None
  1238 ;; Auto vars:     Size  Location     Type
  1239 ;;  surf_buff      60    0[BANK1 ] unsigned char [60]
  1240 ;;  input          30   68[BANK1 ] int [15]
  1241 ;;  check           2  109[BANK1 ] unsigned int 
  1242 ;;  int_press       2  107[BANK1 ] int 
  1243 ;;  check_recv      2  105[BANK1 ] unsigned int 
  1244 ;;  token           2  103[BANK1 ] PTR unsigned char 
  1245 ;;		 -> NULL(0), rx_temp_buff(45), 
  1246 ;;  v_current       2  101[BANK1 ] int 
  1247 ;;  int_temp        2   99[BANK1 ] int 
  1248 ;;  main_current    2   66[BANK1 ] int 
  1249 ;;  delimit         2   60[BANK1 ] const unsigned char [2]
  1250 ;;  ex_temp         2   64[BANK1 ] int 
  1251 ;;  depth           2   62[BANK1 ] int 
  1252 ;;  roll            2    0        int 
  1253 ;;  pitch           2    0        int 
  1254 ;;  heading         2    0        int 
  1255 ;;  in_count        1  111[BANK1 ] unsigned char 
  1256 ;;  comms_timed_    1   98[BANK1 ] unsigned char 
  1257 ;; Return value:  Size  Location     Type
  1258 ;;		None               void
  1259 ;; Registers used:
  1260 ;;		wreg, fsr0l, fsr0h, fsr1l, fsr1h, fsr1l, fsr1h, fsr2l, fsr2h, status,2, status,0, pclat, btemp, btemp+1, btemp+2, bt
      +emp+3, btemp+4, btemp+5, btemp+6, btemp+7, btemp+8, btemp+9, btemp+10, btemp+11, tosl, structret, tblptrl, tblptrh, tblp
      +tru, prodl, prodh, bsr, cstack
  1261 ;; Tracked objects:
  1262 ;;		On entry : 0/0
  1263 ;;		On exit  : 0/0
  1264 ;;		Unchanged: 0/0
  1265 ;; Data sizes:     COMRAM   BANK0   BANK1   BANK2   BANK3   BANK4   BANK5
  1266 ;;      Params:         0       0       0       0       0       0       0
  1267 ;;      Locals:         0       0     112       0       0       0       0
  1268 ;;      Temps:          0       2       0       0       0       0       0
  1269 ;;      Totals:         0       2     112       0       0       0       0
  1270 ;;Total ram usage:      114 bytes
  1271 ;; Hardware stack levels required when called:    8
  1272 ;; This function calls:
  1273 ;;		_Thruster_Driver
  1274 ;;		_Tomcat_Camera
  1275 ;;		_Tomcat_Claw
  1276 ;;		_Tomcat_Depth
  1277 ;;		_Tomcat_Press_Int
  1278 ;;		_Tomcat_Setup
  1279 ;;		_Tomcat_TX_data
  1280 ;;		_Tomcat_TX_error
  1281 ;;		_Tomcat_TX_warn
  1282 ;;		_Tomcat_Temp
  1283 ;;		_Tomcat_Temp_Ex
  1284 ;;		___awmod
  1285 ;;		___wmul
  1286 ;;		_analogRead
  1287 ;;		_atoi
  1288 ;;		_puts1USART
  1289 ;;		_sprintf
  1290 ;;		_strlen
  1291 ;;		_strtok
  1292 ;; This function is called by:
  1293 ;;		Startup code after reset
  1294 ;; This function uses a non-reentrant model
  1295 ;;
  1296                           
  1297                           	psect	text0
  1298  000672                     __ptext0:
  1299                           	opt stack 0
  1300  000672                     _main:
  1301                           	opt stack 23
  1302                           
  1303                           ;Tom_V_Main.c: 67: int heading, pitch, roll;
  1304                           ;Tom_V_Main.c: 68: int depth, int_press, ex_temp, int_temp;
  1305                           ;Tom_V_Main.c: 69: int main_current = 0, v_current = 0;
  1306                           
  1307                           ;incstack = 0
  1308  000672  0E00               	movlw	0
  1309  000674  0101               	movlb	1	; () banked
  1310  000676  0101               	movlb	1	; () banked
  1311  000678  6F43               	movwf	(main@main_current+1)& (0+255),b
  1312  00067A  0E00               	movlw	0
  1313  00067C  0101               	movlb	1	; () banked
  1314  00067E  6F42               	movwf	main@main_current& (0+255),b
  1315  000680  0E00               	movlw	0
  1316  000682  0101               	movlb	1	; () banked
  1317  000684  0101               	movlb	1	; () banked
  1318  000686  6F66               	movwf	(main@v_current+1)& (0+255),b
  1319  000688  0E00               	movlw	0
  1320  00068A  0101               	movlb	1	; () banked
  1321  00068C  6F65               	movwf	main@v_current& (0+255),b
  1322                           
  1323                           ; BSR set to: 1
  1324                           ;Tom_V_Main.c: 70: char comms_timed_out = 0;
  1325  00068E  0100               	movlb	0	; () banked
  1326  000690  6FAF               	movwf	??_main& (0+255),b
  1327  000692  0E00               	movlw	0
  1328  000694  0101               	movlb	1	; () banked
  1329  000696  0101               	movlb	1	; () banked
  1330  000698  6F62               	movwf	main@comms_timed_out& (0+255),b
  1331  00069A  0100               	movlb	0	; () banked
  1332  00069C  51AF               	movf	??_main& (0+255),w,b
  1333                           
  1334                           ; BSR set to: 0
  1335                           ;Tom_V_Main.c: 71: char surf_buff[60];
  1336                           ;Tom_V_Main.c: 72: int input[15] = {0};
  1337  00069E  EE21  F070         	lfsr	2,main@F8436
  1338  0006A2  EE11  F044         	lfsr	1,main@input
  1339  0006A6  0E1E               	movlw	30
  1340  0006A8                     u7311:
  1341  0006A8  CFDE FFE6          	movff	postinc2,postinc1
  1342  0006AC  2EE8               	decfsz	wreg,f,c
  1343  0006AE  D7FC               	goto	u7311
  1344                           
  1345                           ; BSR set to: 0
  1346                           ;Tom_V_Main.c: 73: char *token;
  1347                           ;Tom_V_Main.c: 74: const char delimit[2] = ",";
  1348  0006B0  0E0B               	movlw	low main@F8439
  1349  0006B2  6EF6               	movwf	tblptrl,c
  1350  0006B4  0E06               	movlw	high main@F8439
  1351  0006B6  6EF7               	movwf	tblptrh,c
  1352  0006B8  0009               	tblrd		*+
  1353  0006BA  0101               	movlb	1	; () banked
  1354  0006BC  CFF5 F13C          	movff	tablat,main@delimit
  1355  0006C0  000A               	tblrd		*-
  1356  0006C2  0101               	movlb	1	; () banked
  1357  0006C4  CFF5 F13D          	movff	tablat,main@delimit+1
  1358                           
  1359                           ; BSR set to: 1
  1360                           ;Tom_V_Main.c: 75: char in_count = 0;
  1361  0006C8  0100               	movlb	0	; () banked
  1362  0006CA  6FAF               	movwf	??_main& (0+255),b
  1363  0006CC  0E00               	movlw	0
  1364  0006CE  0101               	movlb	1	; () banked
  1365  0006D0  0101               	movlb	1	; () banked
  1366  0006D2  6F6F               	movwf	main@in_count& (0+255),b
  1367  0006D4  0100               	movlb	0	; () banked
  1368  0006D6  51AF               	movf	??_main& (0+255),w,b
  1369                           
  1370                           ; BSR set to: 0
  1371                           ;Tom_V_Main.c: 76: unsigned int check = 0;
  1372  0006D8  0E00               	movlw	0
  1373  0006DA  0101               	movlb	1	; () banked
  1374  0006DC  0101               	movlb	1	; () banked
  1375  0006DE  6F6E               	movwf	(main@check+1)& (0+255),b
  1376  0006E0  0E00               	movlw	0
  1377  0006E2  0101               	movlb	1	; () banked
  1378  0006E4  6F6D               	movwf	main@check& (0+255),b
  1379                           
  1380                           ; BSR set to: 1
  1381                           ;Tom_V_Main.c: 77: unsigned int check_recv = 0;
  1382  0006E6  0E00               	movlw	0
  1383  0006E8  0101               	movlb	1	; () banked
  1384  0006EA  0101               	movlb	1	; () banked
  1385  0006EC  6F6A               	movwf	(main@check_recv+1)& (0+255),b
  1386  0006EE  0E00               	movlw	0
  1387  0006F0  0101               	movlb	1	; () banked
  1388  0006F2  6F69               	movwf	main@check_recv& (0+255),b
  1389                           
  1390                           ; BSR set to: 1
  1391                           ;Tom_V_Main.c: 80: __nop();
  1392  0006F4  F000               	nop	
  1393                           
  1394                           ;Tom_V_Main.c: 81: __nop();
  1395  0006F6  F000               	nop	
  1396  0006F8  0004               	clrwdt		;# 
  1397                           
  1398                           ;Tom_V_Main.c: 83: RCON = 0b01111111;
  1399  0006FA  0E7F               	movlw	127
  1400  0006FC  6ED0               	movwf	4048,c	;volatile
  1401                           
  1402                           ;Tom_V_Main.c: 84: Tomcat_Setup();
  1403  0006FE  EC16  F00F         	call	_Tomcat_Setup	;wreg free
  1404                           
  1405                           ;Tom_V_Main.c: 85: Thruster_Driver(0, 1);
  1406  000702  0E00               	movlw	0
  1407  000704  0100               	movlb	0	; () banked
  1408  000706  0100               	movlb	0	; () banked
  1409  000708  6F8B               	movwf	(Thruster_Driver@input+1)& (0+255),b
  1410  00070A  0E00               	movlw	0
  1411  00070C  0100               	movlb	0	; () banked
  1412  00070E  6F8A               	movwf	Thruster_Driver@input& (0+255),b
  1413  000710  0100               	movlb	0	; () banked
  1414  000712  6FAF               	movwf	??_main& (0+255),b
  1415  000714  0E01               	movlw	1
  1416  000716  0100               	movlb	0	; () banked
  1417  000718  0100               	movlb	0	; () banked
  1418  00071A  6F8C               	movwf	Thruster_Driver@thruster& (0+255),b
  1419  00071C  0100               	movlb	0	; () banked
  1420  00071E  51AF               	movf	??_main& (0+255),w,b
  1421  000720  ECA2  F007         	call	_Thruster_Driver	;wreg free
  1422                           
  1423                           ;Tom_V_Main.c: 86: Thruster_Driver(0, 2);
  1424  000724  0E00               	movlw	0
  1425  000726  0100               	movlb	0	; () banked
  1426  000728  0100               	movlb	0	; () banked
  1427  00072A  6F8B               	movwf	(Thruster_Driver@input+1)& (0+255),b
  1428  00072C  0E00               	movlw	0
  1429  00072E  0100               	movlb	0	; () banked
  1430  000730  6F8A               	movwf	Thruster_Driver@input& (0+255),b
  1431  000732  0100               	movlb	0	; () banked
  1432  000734  6FAF               	movwf	??_main& (0+255),b
  1433  000736  0E02               	movlw	2
  1434  000738  0100               	movlb	0	; () banked
  1435  00073A  0100               	movlb	0	; () banked
  1436  00073C  6F8C               	movwf	Thruster_Driver@thruster& (0+255),b
  1437  00073E  0100               	movlb	0	; () banked
  1438  000740  51AF               	movf	??_main& (0+255),w,b
  1439  000742  ECA2  F007         	call	_Thruster_Driver	;wreg free
  1440                           
  1441                           ;Tom_V_Main.c: 87: Thruster_Driver(0, 3);
  1442  000746  0E00               	movlw	0
  1443  000748  0100               	movlb	0	; () banked
  1444  00074A  0100               	movlb	0	; () banked
  1445  00074C  6F8B               	movwf	(Thruster_Driver@input+1)& (0+255),b
  1446  00074E  0E00               	movlw	0
  1447  000750  0100               	movlb	0	; () banked
  1448  000752  6F8A               	movwf	Thruster_Driver@input& (0+255),b
  1449  000754  0100               	movlb	0	; () banked
  1450  000756  6FAF               	movwf	??_main& (0+255),b
  1451  000758  0E03               	movlw	3
  1452  00075A  0100               	movlb	0	; () banked
  1453  00075C  0100               	movlb	0	; () banked
  1454  00075E  6F8C               	movwf	Thruster_Driver@thruster& (0+255),b
  1455  000760  0100               	movlb	0	; () banked
  1456  000762  51AF               	movf	??_main& (0+255),w,b
  1457  000764  ECA2  F007         	call	_Thruster_Driver	;wreg free
  1458                           
  1459                           ;Tom_V_Main.c: 88: Thruster_Driver(0, 4);
  1460  000768  0E00               	movlw	0
  1461  00076A  0100               	movlb	0	; () banked
  1462  00076C  0100               	movlb	0	; () banked
  1463  00076E  6F8B               	movwf	(Thruster_Driver@input+1)& (0+255),b
  1464  000770  0E00               	movlw	0
  1465  000772  0100               	movlb	0	; () banked
  1466  000774  6F8A               	movwf	Thruster_Driver@input& (0+255),b
  1467  000776  0100               	movlb	0	; () banked
  1468  000778  6FAF               	movwf	??_main& (0+255),b
  1469  00077A  0E04               	movlw	4
  1470  00077C  0100               	movlb	0	; () banked
  1471  00077E  0100               	movlb	0	; () banked
  1472  000780  6F8C               	movwf	Thruster_Driver@thruster& (0+255),b
  1473  000782  0100               	movlb	0	; () banked
  1474  000784  51AF               	movf	??_main& (0+255),w,b
  1475  000786  ECA2  F007         	call	_Thruster_Driver	;wreg free
  1476  00078A                     l305:
  1477  00078A  0004               	clrwdt		;# 
  1478                           
  1479                           ;Tom_V_Main.c: 94: sprintf(surf_buff, "%d,%d,%d,%d,%d,%d,%d,%d,%d,%d,%d,%d ",
  1480                           ;Tom_V_Main.c: 95: input[0], input[1], input[2], input[3], input[4], input[5], input[6],
      +                           input[7], input[8], check, check_recv, int_press);
  1481  00078C  0101               	movlb	1	; () banked
  1482  00078E  0E01               	movlw	high main@surf_buff
  1483  000790  0100               	movlb	0	; () banked
  1484  000792  0100               	movlb	0	; () banked
  1485  000794  6F61               	movwf	(sprintf@sp+1)& (0+255),b
  1486  000796  0101               	movlb	1	; () banked
  1487  000798  0E00               	movlw	low main@surf_buff
  1488  00079A  0100               	movlb	0	; () banked
  1489  00079C  0100               	movlb	0	; () banked
  1490  00079E  6F60               	movwf	sprintf@sp& (0+255),b
  1491  0007A0  0E06               	movlw	high STR_1
  1492  0007A2  0100               	movlb	0	; () banked
  1493  0007A4  0100               	movlb	0	; () banked
  1494  0007A6  6F63               	movwf	(sprintf@f+1)& (0+255),b
  1495  0007A8  0E49               	movlw	low STR_1
  1496  0007AA  0100               	movlb	0	; () banked
  1497  0007AC  0100               	movlb	0	; () banked
  1498  0007AE  6F62               	movwf	sprintf@f& (0+255),b
  1499  0007B0  C144  F064         	movff	main@input,?_sprintf+4
  1500  0007B4  C145  F065         	movff	main@input+1,?_sprintf+5
  1501  0007B8  C146  F066         	movff	main@input+2,?_sprintf+6
  1502  0007BC  C147  F067         	movff	main@input+3,?_sprintf+7
  1503  0007C0  C148  F068         	movff	main@input+4,?_sprintf+8
  1504  0007C4  C149  F069         	movff	main@input+5,?_sprintf+9
  1505  0007C8  C14A  F06A         	movff	main@input+6,?_sprintf+10
  1506  0007CC  C14B  F06B         	movff	main@input+7,?_sprintf+11
  1507  0007D0  C14C  F06C         	movff	main@input+8,?_sprintf+12
  1508  0007D4  C14D  F06D         	movff	main@input+9,?_sprintf+13
  1509  0007D8  C14E  F06E         	movff	main@input+10,?_sprintf+14
  1510  0007DC  C14F  F06F         	movff	main@input+11,?_sprintf+15
  1511  0007E0  C150  F070         	movff	main@input+12,?_sprintf+16
  1512  0007E4  C151  F071         	movff	main@input+13,?_sprintf+17
  1513  0007E8  C152  F072         	movff	main@input+14,?_sprintf+18
  1514  0007EC  C153  F073         	movff	main@input+15,?_sprintf+19
  1515  0007F0  C154  F074         	movff	main@input+16,?_sprintf+20
  1516  0007F4  C155  F075         	movff	main@input+17,?_sprintf+21
  1517  0007F8  C16D  F076         	movff	main@check,?_sprintf+22
  1518  0007FC  C16E  F077         	movff	main@check+1,?_sprintf+23
  1519  000800  C169  F078         	movff	main@check_recv,?_sprintf+24
  1520  000804  C16A  F079         	movff	main@check_recv+1,?_sprintf+25
  1521  000808  C16B  F07A         	movff	main@int_press,?_sprintf+26
  1522  00080C  C16C  F07B         	movff	main@int_press+1,?_sprintf+27
  1523  000810  EC20  F00C         	call	_sprintf	;wreg free
  1524                           
  1525                           ;Tom_V_Main.c: 97: if (time > 10) {
  1526  000814  0E0A               	movlw	10
  1527  000816  0101               	movlb	1	; () banked
  1528  000818  0101               	movlb	1	; () banked
  1529  00081A  65BD               	cpfsgt	_time& (0+255),b
  1530  00081C  D05C               	goto	l8206
  1531                           
  1532                           ; BSR set to: 1
  1533                           ;Tom_V_Main.c: 99: time = 1;
  1534  00081E  0100               	movlb	0	; () banked
  1535  000820  6FAF               	movwf	??_main& (0+255),b
  1536  000822  0E01               	movlw	1
  1537  000824  0101               	movlb	1	; () banked
  1538  000826  0101               	movlb	1	; () banked
  1539  000828  6FBD               	movwf	_time& (0+255),b
  1540  00082A  0100               	movlb	0	; () banked
  1541  00082C  51AF               	movf	??_main& (0+255),w,b
  1542                           
  1543                           ; BSR set to: 0
  1544                           ;Tom_V_Main.c: 101: depth = Tomcat_Depth();
  1545  00082E  EC94  F00D         	call	_Tomcat_Depth	;wreg free
  1546  000832  0100               	movlb	0	; () banked
  1547  000834  C08A  F13E         	movff	?_Tomcat_Depth,main@depth
  1548  000838  0100               	movlb	0	; () banked
  1549  00083A  C08B  F13F         	movff	?_Tomcat_Depth+1,main@depth+1
  1550                           
  1551                           ; BSR set to: 0
  1552                           ;Tom_V_Main.c: 103: int_press = Tomcat_Press_Int();
  1553  00083E  EC18  F00E         	call	_Tomcat_Press_Int	;wreg free
  1554  000842  0100               	movlb	0	; () banked
  1555  000844  C08A  F16B         	movff	?_Tomcat_Press_Int,main@int_press
  1556  000848  0100               	movlb	0	; () banked
  1557  00084A  C08B  F16C         	movff	?_Tomcat_Press_Int+1,main@int_press+1
  1558                           
  1559                           ; BSR set to: 0
  1560                           ;Tom_V_Main.c: 104: if (int_press > 850)
  1561  00084E  0101               	movlb	1	; () banked
  1562  000850  0101               	movlb	1	; () banked
  1563  000852  516C               	movf	(main@int_press+1)& (0+255),w,b
  1564  000854  0A80               	xorlw	128
  1565  000856  0F7D               	addlw	-131
  1566  000858  0E53               	movlw	83
  1567  00085A  B4D8               	btfsc	status,2,c
  1568  00085C  5D6B               	subwf	main@int_press& (0+255),w,b
  1569  00085E  A0D8               	btfss	status,0,c
  1570  000860  D003               	goto	l8190
  1571                           
  1572                           ; BSR set to: 1
  1573                           ;Tom_V_Main.c: 105: Tomcat_TX_warn('P');
  1574  000862  0E50               	movlw	80
  1575  000864  ECA7  F014         	call	_Tomcat_TX_warn
  1576  000868                     l8190:
  1577                           
  1578                           ;Tom_V_Main.c: 106: if (int_press > 850)
  1579  000868  0101               	movlb	1	; () banked
  1580  00086A  0101               	movlb	1	; () banked
  1581  00086C  516C               	movf	(main@int_press+1)& (0+255),w,b
  1582  00086E  0A80               	xorlw	128
  1583  000870  0F7D               	addlw	-131
  1584  000872  0E53               	movlw	83
  1585  000874  B4D8               	btfsc	status,2,c
  1586  000876  5D6B               	subwf	main@int_press& (0+255),w,b
  1587  000878  A0D8               	btfss	status,0,c
  1588  00087A  D003               	goto	l8194
  1589                           
  1590                           ; BSR set to: 1
  1591                           ;Tom_V_Main.c: 107: Tomcat_TX_error('P');
  1592  00087C  0E50               	movlw	80
  1593  00087E  EC24  F014         	call	_Tomcat_TX_error
  1594  000882                     l8194:
  1595                           
  1596                           ;Tom_V_Main.c: 109: int_temp = Tomcat_Temp();
  1597  000882  ECF3  F00F         	call	_Tomcat_Temp	;wreg free
  1598  000886  0100               	movlb	0	; () banked
  1599  000888  C08A  F163         	movff	?_Tomcat_Temp,main@int_temp
  1600  00088C  0100               	movlb	0	; () banked
  1601  00088E  C08B  F164         	movff	?_Tomcat_Temp+1,main@int_temp+1
  1602                           
  1603                           ; BSR set to: 0
  1604                           ;Tom_V_Main.c: 110: if (int_temp > 65)
  1605  000892  0101               	movlb	1	; () banked
  1606  000894  0101               	movlb	1	; () banked
  1607  000896  5164               	movf	(main@int_temp+1)& (0+255),w,b
  1608  000898  0A80               	xorlw	128
  1609  00089A  0F80               	addlw	-128
  1610  00089C  0E42               	movlw	66
  1611  00089E  B4D8               	btfsc	status,2,c
  1612  0008A0  5D63               	subwf	main@int_temp& (0+255),w,b
  1613  0008A2  A0D8               	btfss	status,0,c
  1614  0008A4  D003               	goto	l8200
  1615                           
  1616                           ; BSR set to: 1
  1617                           ;Tom_V_Main.c: 111: Tomcat_TX_warn('T');
  1618  0008A6  0E54               	movlw	84
  1619  0008A8  ECA7  F014         	call	_Tomcat_TX_warn
  1620  0008AC                     l8200:
  1621                           
  1622                           ;Tom_V_Main.c: 112: if (int_temp > 75)
  1623  0008AC  0101               	movlb	1	; () banked
  1624  0008AE  0101               	movlb	1	; () banked
  1625  0008B0  5164               	movf	(main@int_temp+1)& (0+255),w,b
  1626  0008B2  0A80               	xorlw	128
  1627  0008B4  0F80               	addlw	-128
  1628  0008B6  0E4C               	movlw	76
  1629  0008B8  B4D8               	btfsc	status,2,c
  1630  0008BA  5D63               	subwf	main@int_temp& (0+255),w,b
  1631  0008BC  A0D8               	btfss	status,0,c
  1632  0008BE  D003               	goto	l8204
  1633                           
  1634                           ; BSR set to: 1
  1635                           ;Tom_V_Main.c: 113: Tomcat_TX_error('T');
  1636  0008C0  0E54               	movlw	84
  1637  0008C2  EC24  F014         	call	_Tomcat_TX_error
  1638  0008C6                     l8204:
  1639                           
  1640                           ;Tom_V_Main.c: 115: ex_temp = Tomcat_Temp_Ex();
  1641  0008C6  EC82  F00A         	call	_Tomcat_Temp_Ex	;wreg free
  1642  0008CA  0100               	movlb	0	; () banked
  1643  0008CC  C0A3  F140         	movff	?_Tomcat_Temp_Ex,main@ex_temp
  1644  0008D0  0100               	movlb	0	; () banked
  1645  0008D2  C0A4  F141         	movff	?_Tomcat_Temp_Ex+1,main@ex_temp+1
  1646  0008D6                     l8206:
  1647                           
  1648                           ;Tom_V_Main.c: 117: }
  1649                           ;Tom_V_Main.c: 118: if (((time % 5) == 0) && tmr0_flag) {
  1650  0008D6  0101               	movlb	1	; () banked
  1651  0008D8  C1BD  F016         	movff	_time,___awmod@dividend
  1652  0008DC  6A17               	clrf	___awmod@dividend+1,c
  1653  0008DE  0E00               	movlw	0
  1654  0008E0  6E19               	movwf	___awmod@divisor+1,c
  1655  0008E2  0E05               	movlw	5
  1656  0008E4  6E18               	movwf	___awmod@divisor,c
  1657  0008E6  ECFD  F010         	call	___awmod	;wreg free
  1658  0008EA  5017               	movf	?___awmod+1,w,c
  1659  0008EC  1016               	iorwf	?___awmod,w,c
  1660  0008EE  A4D8               	btfss	status,2,c
  1661  0008F0  D015               	goto	l311
  1662  0008F2  0100               	movlb	(_tmr0_flag/(0+8)) shr (0+8)
  1663  0008F4  A83F               	btfss	_tmr0_flag/(0+8),_tmr0_flag& (0+7),c
  1664  0008F6  D012               	goto	l311
  1665                           
  1666                           ;Tom_V_Main.c: 121: Tomcat_TX_data(surf_buff, strlen(surf_buff) - 1);
  1667  0008F8  0101               	movlb	1	; () banked
  1668  0008FA  0E01               	movlw	high main@surf_buff
  1669  0008FC  6E1D               	movwf	Tomcat_TX_data@tx_buff+1,c
  1670  0008FE  0101               	movlb	1	; () banked
  1671  000900  0E00               	movlw	low main@surf_buff
  1672  000902  6E1C               	movwf	Tomcat_TX_data@tx_buff,c
  1673  000904  0101               	movlb	1	; () banked
  1674  000906  0E01               	movlw	high main@surf_buff
  1675  000908  6E17               	movwf	strlen@s+1,c
  1676  00090A  0101               	movlb	1	; () banked
  1677  00090C  0E00               	movlw	low main@surf_buff
  1678  00090E  6E16               	movwf	strlen@s,c
  1679  000910  EC78  F013         	call	_strlen	;wreg free
  1680  000914  0416               	decf	?_strlen,w,c
  1681  000916  6E1E               	movwf	Tomcat_TX_data@num_bytes,c
  1682  000918  ECCF  F012         	call	_Tomcat_TX_data	;wreg free
  1683  00091C                     l311:
  1684  00091C  0004               	clrwdt		;# 
  1685                           
  1686                           ;Tom_V_Main.c: 124: if (((time % 2) == 0) && tmr0_flag) {
  1687  00091E  0101               	movlb	1	; () banked
  1688  000920  0101               	movlb	1	; () banked
  1689  000922  B1BD               	btfsc	_time& (0+255),0,b
  1690  000924  D035               	goto	l8228
  1691                           
  1692                           ; BSR set to: 1
  1693  000926  0100               	movlb	(_tmr0_flag/(0+8)) shr (0+8)
  1694  000928  A83F               	btfss	_tmr0_flag/(0+8),_tmr0_flag& (0+7),c
  1695  00092A  D032               	goto	l8228
  1696                           
  1697                           ;Tom_V_Main.c: 127: main_current = analogRead(1) * 5;
  1698  00092C  0E01               	movlw	1
  1699  00092E  EC09  F014         	call	_analogRead
  1700  000932  C016  F01F         	movff	?_analogRead,___wmul@multiplier
  1701  000936  C017  F020         	movff	?_analogRead+1,___wmul@multiplier+1
  1702  00093A  0E00               	movlw	0
  1703  00093C  6E22               	movwf	___wmul@multiplicand+1,c
  1704  00093E  0E05               	movlw	5
  1705  000940  6E21               	movwf	___wmul@multiplicand,c
  1706  000942  EC95  F013         	call	___wmul	;wreg free
  1707  000946  C01F  F142         	movff	?___wmul,main@main_current
  1708  00094A  C020  F143         	movff	?___wmul+1,main@main_current+1
  1709                           
  1710                           ;Tom_V_Main.c: 128: v_current = analogRead(0) * 1;
  1711  00094E  0E00               	movlw	0
  1712  000950  EC09  F014         	call	_analogRead
  1713  000954  C016  F165         	movff	?_analogRead,main@v_current
  1714  000958  C017  F166         	movff	?_analogRead+1,main@v_current+1
  1715                           
  1716                           ;Tom_V_Main.c: 130: if (v_current > 2003)
  1717  00095C  0101               	movlb	1	; () banked
  1718  00095E  0101               	movlb	1	; () banked
  1719  000960  5166               	movf	(main@v_current+1)& (0+255),w,b
  1720  000962  0A80               	xorlw	128
  1721  000964  0F79               	addlw	-135
  1722  000966  0ED4               	movlw	212
  1723  000968  B4D8               	btfsc	status,2,c
  1724  00096A  5D65               	subwf	main@v_current& (0+255),w,b
  1725  00096C  A0D8               	btfss	status,0,c
  1726  00096E  D003               	goto	l8224
  1727                           
  1728                           ; BSR set to: 1
  1729                           ;Tom_V_Main.c: 131: Tomcat_TX_warn('C');
  1730  000970  0E43               	movlw	67
  1731  000972  ECA7  F014         	call	_Tomcat_TX_warn
  1732  000976                     l8224:
  1733                           
  1734                           ;Tom_V_Main.c: 132: if (v_current > 2000)
  1735  000976  0101               	movlb	1	; () banked
  1736  000978  0101               	movlb	1	; () banked
  1737  00097A  5166               	movf	(main@v_current+1)& (0+255),w,b
  1738  00097C  0A80               	xorlw	128
  1739  00097E  0F79               	addlw	-135
  1740  000980  0ED1               	movlw	209
  1741  000982  B4D8               	btfsc	status,2,c
  1742  000984  5D65               	subwf	main@v_current& (0+255),w,b
  1743  000986  A0D8               	btfss	status,0,c
  1744  000988  D003               	goto	l8228
  1745                           
  1746                           ; BSR set to: 1
  1747                           ;Tom_V_Main.c: 133: Tomcat_TX_error('C');
  1748  00098A  0E43               	movlw	67
  1749  00098C  EC24  F014         	call	_Tomcat_TX_error
  1750  000990                     l8228:
  1751                           
  1752                           ;Tom_V_Main.c: 134: }
  1753                           ;Tom_V_Main.c: 135: if (tmr0_flag) {
  1754  000990  0100               	movlb	(_tmr0_flag/(0+8)) shr (0+8)
  1755  000992  A83F               	btfss	_tmr0_flag/(0+8),_tmr0_flag& (0+7),c
  1756  000994  D002               	goto	l315
  1757                           
  1758                           ;Tom_V_Main.c: 137: tmr0_flag = 0;
  1759  000996  0100               	movlb	(_tmr0_flag/(0+8)) shr (0+8)
  1760  000998  983F               	bcf	_tmr0_flag/(0+8),_tmr0_flag& (0+7),c
  1761  00099A                     l315:
  1762  00099A  0004               	clrwdt		;# 
  1763                           
  1764                           ;Tom_V_Main.c: 145: if (comms_time > 20 || comms_timed_out) {
  1765  00099C  0E15               	movlw	21
  1766  00099E  0101               	movlb	1	; () banked
  1767  0009A0  0101               	movlb	1	; () banked
  1768  0009A2  5D8E               	subwf	_comms_time& (0+255),w,b
  1769  0009A4  0E00               	movlw	0
  1770  0009A6  0101               	movlb	1	; () banked
  1771  0009A8  598F               	subwfb	(_comms_time+1)& (0+255),w,b
  1772  0009AA  B0D8               	btfsc	status,0,c
  1773  0009AC  D005               	goto	l8236
  1774                           
  1775                           ; BSR set to: 1
  1776  0009AE  0101               	movlb	1	; () banked
  1777  0009B0  0101               	movlb	1	; () banked
  1778  0009B2  5162               	movf	main@comms_timed_out& (0+255),w,b
  1779  0009B4  B4D8               	btfsc	status,2,c
  1780  0009B6  D00C               	goto	l8242
  1781  0009B8                     l8236:
  1782                           
  1783                           ; BSR set to: 1
  1784                           ;Tom_V_Main.c: 146: comms_timed_out = 1;
  1785  0009B8  0100               	movlb	0	; () banked
  1786  0009BA  6FAF               	movwf	??_main& (0+255),b
  1787  0009BC  0E01               	movlw	1
  1788  0009BE  0101               	movlb	1	; () banked
  1789  0009C0  0101               	movlb	1	; () banked
  1790  0009C2  6F62               	movwf	main@comms_timed_out& (0+255),b
  1791  0009C4  0100               	movlb	0	; () banked
  1792  0009C6  51AF               	movf	??_main& (0+255),w,b
  1793                           
  1794                           ; BSR set to: 0
  1795                           ;Tom_V_Main.c: 147: LATAbits.LATA4 = 0;
  1796  0009C8  9889               	bcf	3977,4,c	;volatile
  1797                           
  1798                           ; BSR set to: 0
  1799                           ;Tom_V_Main.c: 148: Tomcat_TX_error('N');
  1800  0009CA  0E4E               	movlw	78
  1801  0009CC  EC24  F014         	call	_Tomcat_TX_error
  1802  0009D0                     l8242:
  1803                           
  1804                           ;Tom_V_Main.c: 150: }
  1805                           ;Tom_V_Main.c: 151: if (rx1_flag == 1) {
  1806  0009D0  0100               	movlb	(_rx1_flag/(0+8)) shr (0+8)
  1807  0009D2  A43F               	btfss	_rx1_flag/(0+8),_rx1_flag& (0+7),c
  1808  0009D4  D110               	goto	l8300
  1809  0009D6                     l320:
  1810  0009D6  A2AC               	btfss	4012,1,c	;volatile
  1811  0009D8  D7FE               	goto	l320
  1812                           
  1813                           ;Tom_V_Main.c: 159: puts1USART(rx_temp_buff);
  1814  0009DA  0101               	movlb	1	; () banked
  1815  0009DC  0E01               	movlw	high _rx_temp_buff
  1816  0009DE  6E18               	movwf	puts1USART@data+1,c
  1817  0009E0  0101               	movlb	1	; () banked
  1818  0009E2  0E90               	movlw	low _rx_temp_buff
  1819  0009E4  6E17               	movwf	puts1USART@data,c
  1820  0009E6  EC94  F014         	call	_puts1USART	;wreg free
  1821                           
  1822                           ;Tom_V_Main.c: 161: token = strtok(&rx_temp_buff[1], ",");
  1823  0009EA  0101               	movlb	1	; () banked
  1824  0009EC  0E01               	movlw	high (_rx_temp_buff+1)
  1825  0009EE  6E22               	movwf	strtok@s1+1,c
  1826  0009F0  0101               	movlb	1	; () banked
  1827  0009F2  0E91               	movlw	low (_rx_temp_buff+1)
  1828  0009F4  6E21               	movwf	strtok@s1,c
  1829  0009F6  0E06               	movlw	high STR_2
  1830  0009F8  6E24               	movwf	strtok@s2+1,c
  1831  0009FA  0E6E               	movlw	low STR_2
  1832  0009FC  6E23               	movwf	strtok@s2,c
  1833  0009FE  EC51  F010         	call	_strtok	;wreg free
  1834  000A02  C021  F167         	movff	?_strtok,main@token
  1835  000A06  C022  F168         	movff	?_strtok+1,main@token+1
  1836                           
  1837                           ;Tom_V_Main.c: 162: input[0] = atoi(token);
  1838  000A0A  0101               	movlb	1	; () banked
  1839  000A0C  C168  F028         	movff	main@token+1,atoi@s+1
  1840  000A10  0101               	movlb	1	; () banked
  1841  000A12  C167  F027         	movff	main@token,atoi@s
  1842  000A16  EC8C  F00F         	call	_atoi	;wreg free
  1843  000A1A  C027  F144         	movff	?_atoi,main@input
  1844  000A1E  C028  F145         	movff	?_atoi+1,main@input+1
  1845                           
  1846                           ;Tom_V_Main.c: 163: check = input[0];
  1847  000A22  C144  F16D         	movff	main@input,main@check
  1848  000A26  C145  F16E         	movff	main@input+1,main@check+1
  1849                           
  1850                           ;Tom_V_Main.c: 164: for (in_count = 1; in_count < 9; in_count++) {
  1851  000A2A  0100               	movlb	0	; () banked
  1852  000A2C  6FAF               	movwf	??_main& (0+255),b
  1853  000A2E  0E01               	movlw	1
  1854  000A30  0101               	movlb	1	; () banked
  1855  000A32  0101               	movlb	1	; () banked
  1856  000A34  6F6F               	movwf	main@in_count& (0+255),b
  1857  000A36  0100               	movlb	0	; () banked
  1858  000A38  51AF               	movf	??_main& (0+255),w,b
  1859  000A3A  D048               	goto	L1
  1860  000A3C                     l8260:
  1861                           
  1862                           ; BSR set to: 1
  1863                           ;Tom_V_Main.c: 165: token = strtok((0), ",");
  1864  000A3C  0E00               	movlw	0
  1865  000A3E  6E22               	movwf	strtok@s1+1,c
  1866  000A40  0E00               	movlw	0
  1867  000A42  6E21               	movwf	strtok@s1,c
  1868  000A44  0E06               	movlw	high STR_2
  1869  000A46  6E24               	movwf	strtok@s2+1,c
  1870  000A48  0E6E               	movlw	low STR_2
  1871  000A4A  6E23               	movwf	strtok@s2,c
  1872  000A4C  EC51  F010         	call	_strtok	;wreg free
  1873  000A50  C021  F167         	movff	?_strtok,main@token
  1874  000A54  C022  F168         	movff	?_strtok+1,main@token+1
  1875                           
  1876                           ;Tom_V_Main.c: 166: input[in_count] = atoi(token);
  1877  000A58  0101               	movlb	1	; () banked
  1878  000A5A  C168  F028         	movff	main@token+1,atoi@s+1
  1879  000A5E  0101               	movlb	1	; () banked
  1880  000A60  C167  F027         	movff	main@token,atoi@s
  1881  000A64  EC8C  F00F         	call	_atoi	;wreg free
  1882  000A68  0101               	movlb	1	; () banked
  1883  000A6A  0101               	movlb	1	; () banked
  1884  000A6C  516F               	movf	main@in_count& (0+255),w,b
  1885  000A6E  0D02               	mullw	2
  1886  000A70  0101               	movlb	1	; () banked
  1887  000A72  0E44               	movlw	low main@input
  1888  000A74  24F3               	addwf	prodl,w,c
  1889  000A76  6ED9               	movwf	fsr2l,c
  1890  000A78  0101               	movlb	1	; () banked
  1891  000A7A  0E01               	movlw	high main@input
  1892  000A7C  20F4               	addwfc	prodh,w,c
  1893  000A7E  6EDA               	movwf	fsr2h,c
  1894  000A80  C027  FFDE         	movff	?_atoi,postinc2
  1895  000A84  C028  FFDD         	movff	?_atoi+1,postdec2
  1896                           
  1897                           ; BSR set to: 1
  1898                           ;Tom_V_Main.c: 167: check = check + input[in_count];
  1899  000A88  0101               	movlb	1	; () banked
  1900  000A8A  0101               	movlb	1	; () banked
  1901  000A8C  516F               	movf	main@in_count& (0+255),w,b
  1902  000A8E  0D02               	mullw	2
  1903  000A90  0101               	movlb	1	; () banked
  1904  000A92  0E44               	movlw	low main@input
  1905  000A94  24F3               	addwf	prodl,w,c
  1906  000A96  6ED9               	movwf	fsr2l,c
  1907  000A98  0101               	movlb	1	; () banked
  1908  000A9A  0E01               	movlw	high main@input
  1909  000A9C  20F4               	addwfc	prodh,w,c
  1910  000A9E  6EDA               	movwf	fsr2h,c
  1911  000AA0  CFDE F0AF          	movff	postinc2,??_main
  1912  000AA4  CFDD F0B0          	movff	postdec2,??_main+1
  1913  000AA8  0101               	movlb	1	; () banked
  1914  000AAA  0101               	movlb	1	; () banked
  1915  000AAC  516D               	movf	main@check& (0+255),w,b
  1916  000AAE  0100               	movlb	0	; () banked
  1917  000AB0  25AF               	addwf	??_main& (0+255),w,b
  1918  000AB2  0101               	movlb	1	; () banked
  1919  000AB4  0101               	movlb	1	; () banked
  1920  000AB6  6F6D               	movwf	main@check& (0+255),b
  1921  000AB8  0101               	movlb	1	; () banked
  1922  000ABA  0101               	movlb	1	; () banked
  1923  000ABC  516E               	movf	(main@check+1)& (0+255),w,b
  1924  000ABE  0100               	movlb	0	; () banked
  1925  000AC0  21B0               	addwfc	(??_main+1)& (0+255),w,b
  1926  000AC2  0101               	movlb	1	; () banked
  1927  000AC4  6F6E               	movwf	(main@check+1)& (0+255),b
  1928                           
  1929                           ; BSR set to: 1
  1930  000AC6  0101               	movlb	1	; () banked
  1931  000AC8  0101               	movlb	1	; () banked
  1932  000ACA  2B6F               	incf	main@in_count& (0+255),f,b
  1933  000ACC                     L1:
  1934                           
  1935                           ; BSR set to: 1
  1936  000ACC  0E08               	movlw	8
  1937  000ACE  0101               	movlb	1	; () banked
  1938  000AD0  0101               	movlb	1	; () banked
  1939  000AD2  656F               	cpfsgt	main@in_count& (0+255),b
  1940  000AD4  D7B3               	goto	l8260
  1941                           
  1942                           ; BSR set to: 1
  1943                           ;Tom_V_Main.c: 168: }
  1944                           ;Tom_V_Main.c: 169: check_recv = atoi(strtok((0), ","));
  1945                           
  1946                           ; BSR set to: 1
  1947  000AD6  0E00               	movlw	0
  1948  000AD8  6E22               	movwf	strtok@s1+1,c
  1949  000ADA  0E00               	movlw	0
  1950  000ADC  6E21               	movwf	strtok@s1,c
  1951  000ADE  0E06               	movlw	high STR_2
  1952  000AE0  6E24               	movwf	strtok@s2+1,c
  1953  000AE2  0E6E               	movlw	low STR_2
  1954  000AE4  6E23               	movwf	strtok@s2,c
  1955  000AE6  EC51  F010         	call	_strtok	;wreg free
  1956  000AEA  C021  F027         	movff	?_strtok,atoi@s
  1957  000AEE  C022  F028         	movff	?_strtok+1,atoi@s+1
  1958  000AF2  EC8C  F00F         	call	_atoi	;wreg free
  1959  000AF6  C027  F169         	movff	?_atoi,main@check_recv
  1960  000AFA  C028  F16A         	movff	?_atoi+1,main@check_recv+1
  1961                           
  1962                           ;Tom_V_Main.c: 171: if (check == check_recv) {
  1963  000AFE  0101               	movlb	1	; () banked
  1964  000B00  0101               	movlb	1	; () banked
  1965  000B02  516A               	movf	(main@check_recv+1)& (0+255),w,b
  1966  000B04  0101               	movlb	1	; () banked
  1967  000B06  0101               	movlb	1	; () banked
  1968  000B08  196E               	xorwf	(main@check+1)& (0+255),w,b
  1969  000B0A  E106               	bnz	u7505
  1970  000B0C  0101               	movlb	1	; () banked
  1971  000B0E  0101               	movlb	1	; () banked
  1972  000B10  5169               	movf	main@check_recv& (0+255),w,b
  1973  000B12  0101               	movlb	1	; () banked
  1974  000B14  0101               	movlb	1	; () banked
  1975  000B16  196D               	xorwf	main@check& (0+255),w,b
  1976  000B18                     u7505:
  1977  000B18  A4D8               	btfss	status,2,c
  1978  000B1A  D065               	goto	l8296
  1979                           
  1980                           ; BSR set to: 1
  1981                           ;Tom_V_Main.c: 172: comms_time = 0;
  1982  000B1C  0E00               	movlw	0
  1983  000B1E  0101               	movlb	1	; () banked
  1984  000B20  0101               	movlb	1	; () banked
  1985  000B22  6F8F               	movwf	(_comms_time+1)& (0+255),b
  1986  000B24  0E00               	movlw	0
  1987  000B26  0101               	movlb	1	; () banked
  1988  000B28  6F8E               	movwf	_comms_time& (0+255),b
  1989                           
  1990                           ; BSR set to: 1
  1991                           ;Tom_V_Main.c: 173: comms_timed_out = 0;
  1992  000B2A  0100               	movlb	0	; () banked
  1993  000B2C  6FAF               	movwf	??_main& (0+255),b
  1994  000B2E  0E00               	movlw	0
  1995  000B30  0101               	movlb	1	; () banked
  1996  000B32  0101               	movlb	1	; () banked
  1997  000B34  6F62               	movwf	main@comms_timed_out& (0+255),b
  1998  000B36  0100               	movlb	0	; () banked
  1999  000B38  51AF               	movf	??_main& (0+255),w,b
  2000                           
  2001                           ; BSR set to: 0
  2002                           ;Tom_V_Main.c: 174: LATAbits.LATA4 = 1;
  2003  000B3A  8889               	bsf	3977,4,c	;volatile
  2004                           
  2005                           ; BSR set to: 0
  2006                           ;Tom_V_Main.c: 176: Thruster_Driver(input[0], 1);
  2007  000B3C  C144  F08A         	movff	main@input,Thruster_Driver@input
  2008  000B40  C145  F08B         	movff	main@input+1,Thruster_Driver@input+1
  2009  000B44  0100               	movlb	0	; () banked
  2010  000B46  6FAF               	movwf	??_main& (0+255),b
  2011  000B48  0E01               	movlw	1
  2012  000B4A  0100               	movlb	0	; () banked
  2013  000B4C  0100               	movlb	0	; () banked
  2014  000B4E  6F8C               	movwf	Thruster_Driver@thruster& (0+255),b
  2015  000B50  0100               	movlb	0	; () banked
  2016  000B52  51AF               	movf	??_main& (0+255),w,b
  2017  000B54  ECA2  F007         	call	_Thruster_Driver	;wreg free
  2018                           
  2019                           ;Tom_V_Main.c: 177: Thruster_Driver(input[1], 2);
  2020  000B58  C146  F08A         	movff	main@input+2,Thruster_Driver@input
  2021  000B5C  C147  F08B         	movff	main@input+3,Thruster_Driver@input+1
  2022  000B60  0100               	movlb	0	; () banked
  2023  000B62  6FAF               	movwf	??_main& (0+255),b
  2024  000B64  0E02               	movlw	2
  2025  000B66  0100               	movlb	0	; () banked
  2026  000B68  0100               	movlb	0	; () banked
  2027  000B6A  6F8C               	movwf	Thruster_Driver@thruster& (0+255),b
  2028  000B6C  0100               	movlb	0	; () banked
  2029  000B6E  51AF               	movf	??_main& (0+255),w,b
  2030  000B70  ECA2  F007         	call	_Thruster_Driver	;wreg free
  2031                           
  2032                           ;Tom_V_Main.c: 178: Thruster_Driver(input[2], 3);
  2033  000B74  C148  F08A         	movff	main@input+4,Thruster_Driver@input
  2034  000B78  C149  F08B         	movff	main@input+5,Thruster_Driver@input+1
  2035  000B7C  0100               	movlb	0	; () banked
  2036  000B7E  6FAF               	movwf	??_main& (0+255),b
  2037  000B80  0E03               	movlw	3
  2038  000B82  0100               	movlb	0	; () banked
  2039  000B84  0100               	movlb	0	; () banked
  2040  000B86  6F8C               	movwf	Thruster_Driver@thruster& (0+255),b
  2041  000B88  0100               	movlb	0	; () banked
  2042  000B8A  51AF               	movf	??_main& (0+255),w,b
  2043  000B8C  ECA2  F007         	call	_Thruster_Driver	;wreg free
  2044                           
  2045                           ;Tom_V_Main.c: 179: Thruster_Driver(input[3], 4);
  2046  000B90  C14A  F08A         	movff	main@input+6,Thruster_Driver@input
  2047  000B94  C14B  F08B         	movff	main@input+7,Thruster_Driver@input+1
  2048  000B98  0100               	movlb	0	; () banked
  2049  000B9A  6FAF               	movwf	??_main& (0+255),b
  2050  000B9C  0E04               	movlw	4
  2051  000B9E  0100               	movlb	0	; () banked
  2052  000BA0  0100               	movlb	0	; () banked
  2053  000BA2  6F8C               	movwf	Thruster_Driver@thruster& (0+255),b
  2054  000BA4  0100               	movlb	0	; () banked
  2055  000BA6  51AF               	movf	??_main& (0+255),w,b
  2056  000BA8  ECA2  F007         	call	_Thruster_Driver	;wreg free
  2057                           
  2058                           ;Tom_V_Main.c: 180: Tomcat_Claw(input[4], input[5]);
  2059  000BAC  C14C  F016         	movff	main@input+8,Tomcat_Claw@grip
  2060  000BB0  C14D  F017         	movff	main@input+9,Tomcat_Claw@grip+1
  2061  000BB4  C14E  F018         	movff	main@input+10,Tomcat_Claw@wrist
  2062  000BB8  C14F  F019         	movff	main@input+11,Tomcat_Claw@wrist+1
  2063  000BBC  ECA8  F012         	call	_Tomcat_Claw	;wreg free
  2064                           
  2065                           ;Tom_V_Main.c: 181: Tomcat_Camera(input[6], input[7]);
  2066  000BC0  C150  F01F         	movff	main@input+12,Tomcat_Camera@pan
  2067  000BC4  C151  F020         	movff	main@input+13,Tomcat_Camera@pan+1
  2068  000BC8  C152  F021         	movff	main@input+14,Tomcat_Camera@tilt
  2069  000BCC  C153  F022         	movff	main@input+15,Tomcat_Camera@tilt+1
  2070  000BD0  ECB9  F014         	call	_Tomcat_Camera	;wreg free
  2071                           
  2072                           ;Tom_V_Main.c: 183: if (input[8]) {
  2073  000BD4  0101               	movlb	1	; () banked
  2074  000BD6  0101               	movlb	1	; () banked
  2075  000BD8  5155               	movf	(main@input+17)& (0+255),w,b
  2076  000BDA  1154               	iorwf	(main@input+16)& (0+255),w,b
  2077  000BDC  B4D8               	btfsc	status,2,c
  2078  000BDE  D002               	goto	l326
  2079                           
  2080                           ; BSR set to: 1
  2081                           ;Tom_V_Main.c: 184: LATDbits.LATD3 = 1;
  2082  000BE0  868C               	bsf	3980,3,c	;volatile
  2083                           
  2084                           ;Tom_V_Main.c: 185: } else {
  2085  000BE2  D001               	goto	l8296
  2086  000BE4                     l326:
  2087                           
  2088                           ; BSR set to: 1
  2089                           ;Tom_V_Main.c: 186: LATDbits.LATD3 = 0;
  2090  000BE4  968C               	bcf	3980,3,c	;volatile
  2091  000BE6                     l8296:
  2092                           
  2093                           ; BSR set to: 1
  2094                           ;Tom_V_Main.c: 187: }
  2095                           ;Tom_V_Main.c: 188: }
  2096                           ;Tom_V_Main.c: 189: rx1_count = 0;
  2097  000BE6  0100               	movlb	0	; () banked
  2098  000BE8  6FAF               	movwf	??_main& (0+255),b
  2099  000BEA  0E00               	movlw	0
  2100  000BEC  6E46               	movwf	_rx1_count,c
  2101  000BEE  0100               	movlb	0	; () banked
  2102  000BF0  51AF               	movf	??_main& (0+255),w,b
  2103                           
  2104                           ; BSR set to: 0
  2105                           ;Tom_V_Main.c: 190: rx1_flag = 0;
  2106  000BF2  0100               	movlb	(_rx1_flag/(0+8)) shr (0+8)
  2107  000BF4  943F               	bcf	_rx1_flag/(0+8),_rx1_flag& (0+7),c
  2108  000BF6                     l8300:
  2109                           
  2110                           ;Tom_V_Main.c: 191: }
  2111                           ;Tom_V_Main.c: 192: if (rx2_flag) {
  2112  000BF6  0100               	movlb	(_rx2_flag/(0+8)) shr (0+8)
  2113  000BF8  A63F               	btfss	_rx2_flag/(0+8),_rx2_flag& (0+7),c
  2114  000BFA  D002               	goto	l328
  2115                           
  2116                           ;Tom_V_Main.c: 194: rx2_flag = 0;
  2117  000BFC  0100               	movlb	(_rx2_flag/(0+8)) shr (0+8)
  2118  000BFE  963F               	bcf	_rx2_flag/(0+8),_rx2_flag& (0+7),c
  2119  000C00                     l328:
  2120  000C00  0004               	clrwdt		;# 
  2121                           
  2122                           ;Tom_V_Main.c: 198: if (leak1_flag || PORTBbits.RB1) {
  2123  000C02  0100               	movlb	(_leak1_flag/(0+8)) shr (0+8)
  2124  000C04  B03F               	btfsc	_leak1_flag/(0+8),_leak1_flag& (0+7),c
  2125  000C06  D002               	goto	l331
  2126  000C08  A281               	btfss	3969,1,c	;volatile
  2127  000C0A  D5BF               	goto	l305
  2128  000C0C                     l331:
  2129                           
  2130                           ;Tom_V_Main.c: 199: leak1_flag = 0;
  2131  000C0C  0100               	movlb	(_leak1_flag/(0+8)) shr (0+8)
  2132  000C0E  903F               	bcf	_leak1_flag/(0+8),_leak1_flag& (0+7),c
  2133                           
  2134                           ;Tom_V_Main.c: 200: Tomcat_TX_error('L');
  2135  000C10  0E4C               	movlw	76
  2136  000C12  EC24  F014         	call	_Tomcat_TX_error
  2137  000C16  D5B9               	goto	l305
  2138  000C18                     __end_of_main:
  2139                           	opt stack 0
  2140                           tblptru	equ	0xFF8
  2141                           tblptrh	equ	0xFF7
  2142                           tblptrl	equ	0xFF6
  2143                           tablat	equ	0xFF5
  2144                           prodh	equ	0xFF4
  2145                           prodl	equ	0xFF3
  2146                           postinc0	equ	0xFEE
  2147                           wreg	equ	0xFE8
  2148                           postinc1	equ	0xFE6
  2149                           postdec1	equ	0xFE5
  2150                           fsr1l	equ	0xFE1
  2151                           postinc2	equ	0xFDE
  2152                           postdec2	equ	0xFDD
  2153                           fsr2h	equ	0xFDA
  2154                           fsr2l	equ	0xFD9
  2155                           status	equ	0xFD8
  2156                           
  2157 ;; *************** function _strtok *****************
  2158 ;; Defined at:
  2159 ;;		line 8 in file "C:\Program Files (x86)\Microchip\xc8\v1.30\sources\common\strtok.c"
  2160 ;; Parameters:    Size  Location     Type
  2161 ;;  s1              2   32[COMRAM] PTR unsigned char 
  2162 ;;		 -> NULL(0), rx_temp_buff(45), 
  2163 ;;  s2              2   34[COMRAM] PTR const unsigned char 
  2164 ;;		 -> STR_4(2), STR_3(2), STR_2(2), 
  2165 ;; Auto vars:     Size  Location     Type
  2166 ;;		None
  2167 ;; Return value:  Size  Location     Type
  2168 ;;                  2   32[COMRAM] PTR unsigned char 
  2169 ;; Registers used:
  2170 ;;		wreg, fsr0l, fsr0h, fsr1l, fsr1h, fsr1l, fsr1h, fsr2l, fsr2h, status,2, status,0, pclat, btemp, btemp+1, btemp+2, bt
      +emp+3, btemp+4, btemp+5, btemp+6, btemp+7, btemp+8, btemp+9, btemp+10, btemp+11, tosl, structret, tblptrl, tblptrh, tblp
      +tru, prodl, prodh, bsr, cstack
  2171 ;; Tracked objects:
  2172 ;;		On entry : 0/0
  2173 ;;		On exit  : 0/0
  2174 ;;		Unchanged: 0/0
  2175 ;; Data sizes:     COMRAM   BANK0   BANK1   BANK2   BANK3   BANK4   BANK5
  2176 ;;      Params:         4       0       0       0       0       0       0
  2177 ;;      Locals:         0       0       0       0       0       0       0
  2178 ;;      Temps:          0       0       0       0       0       0       0
  2179 ;;      Totals:         4       0       0       0       0       0       0
  2180 ;;Total ram usage:        4 bytes
  2181 ;; Hardware stack levels used:    1
  2182 ;; Hardware stack levels required when called:    5
  2183 ;; This function calls:
  2184 ;;		_strcspn
  2185 ;;		_strspn
  2186 ;; This function is called by:
  2187 ;;		_main
  2188 ;; This function uses a non-reentrant model
  2189 ;;
  2190                           
  2191                           	psect	text1
  2192  0020A2                     __ptext1:
  2193                           	opt stack 0
  2194  0020A2                     _strtok:
  2195                           	opt stack 25
  2196                           
  2197                           ;incstack = 0
  2198  0020A2  5022               	movf	strtok@s1+1,w,c
  2199  0020A4  1021               	iorwf	strtok@s1,w,c
  2200  0020A6  A4D8               	btfss	status,2,c
  2201  0020A8  D004               	goto	l1416
  2202  0020AA  C041  F022         	movff	strtok@sp+1,strtok@s1+1
  2203  0020AE  C040  F021         	movff	strtok@sp,strtok@s1
  2204  0020B2                     l1416:
  2205  0020B2  5022               	movf	strtok@s1+1,w,c
  2206  0020B4  1021               	iorwf	strtok@s1,w,c
  2207  0020B6  A4D8               	btfss	status,2,c
  2208  0020B8  D005               	goto	l5054
  2209  0020BA  0E00               	movlw	0
  2210  0020BC  6E22               	movwf	?_strtok+1,c
  2211  0020BE  0E00               	movlw	0
  2212  0020C0  6E21               	movwf	?_strtok,c
  2213  0020C2  0012               	return	
  2214  0020C4                     l5054:
  2215  0020C4  C022  F01B         	movff	strtok@s1+1,strspn@s1+1
  2216  0020C8  C021  F01A         	movff	strtok@s1,strspn@s1
  2217  0020CC  C024  F01D         	movff	strtok@s2+1,strspn@s2+1
  2218  0020D0  C023  F01C         	movff	strtok@s2,strspn@s2
  2219  0020D4  EC58  F012         	call	_strspn	;wreg free
  2220  0020D8  501A               	movf	?_strspn,w,c
  2221  0020DA  2621               	addwf	strtok@s1,f,c
  2222  0020DC  501B               	movf	?_strspn+1,w,c
  2223  0020DE  2222               	addwfc	strtok@s1+1,f,c
  2224  0020E0  C021  FFD9         	movff	strtok@s1,fsr2l
  2225  0020E4  C022  FFDA         	movff	strtok@s1+1,fsr2h
  2226  0020E8  50DF               	movf	indf2,w,c
  2227  0020EA  A4D8               	btfss	status,2,c
  2228  0020EC  D009               	goto	l5062
  2229  0020EE  0E00               	movlw	0
  2230  0020F0  6E41               	movwf	strtok@sp+1,c
  2231  0020F2  0E00               	movlw	0
  2232  0020F4  6E40               	movwf	strtok@sp,c
  2233  0020F6  C041  F022         	movff	strtok@sp+1,?_strtok+1
  2234  0020FA  C040  F021         	movff	strtok@sp,?_strtok
  2235  0020FE  0012               	return	
  2236  002100                     l5062:
  2237  002100  C022  F01B         	movff	strtok@s1+1,strcspn@s1+1
  2238  002104  C021  F01A         	movff	strtok@s1,strcspn@s1
  2239  002108  C024  F01D         	movff	strtok@s2+1,strcspn@s2+1
  2240  00210C  C023  F01C         	movff	strtok@s2,strcspn@s2
  2241  002110  EC80  F012         	call	_strcspn	;wreg free
  2242  002114  501A               	movf	?_strcspn,w,c
  2243  002116  2421               	addwf	strtok@s1,w,c
  2244  002118  6E40               	movwf	strtok@sp,c
  2245  00211A  501B               	movf	?_strcspn+1,w,c
  2246  00211C  2022               	addwfc	strtok@s1+1,w,c
  2247  00211E  6E41               	movwf	strtok@sp+1,c
  2248  002120  C040  FFD9         	movff	strtok@sp,fsr2l
  2249  002124  C041  FFDA         	movff	strtok@sp+1,fsr2h
  2250  002128  50DF               	movf	indf2,w,c
  2251  00212A  B4D8               	btfsc	status,2,c
  2252  00212C  D009               	goto	l5070
  2253  00212E  C040  FFD9         	movff	strtok@sp,fsr2l
  2254  002132  C041  FFDA         	movff	strtok@sp+1,fsr2h
  2255  002136  0E00               	movlw	0
  2256  002138  6EDF               	movwf	indf2,c
  2257  00213A  4A40               	infsnz	strtok@sp,f,c
  2258  00213C  2A41               	incf	strtok@sp+1,f,c
  2259  00213E  D004               	goto	l1421
  2260  002140                     l5070:
  2261  002140  0E00               	movlw	0
  2262  002142  6E41               	movwf	strtok@sp+1,c
  2263  002144  0E00               	movlw	0
  2264  002146  6E40               	movwf	strtok@sp,c
  2265  002148                     l1421:
  2266  002148  C022  F022         	movff	strtok@s1+1,?_strtok+1
  2267  00214C  C021  F021         	movff	strtok@s1,?_strtok
  2268  002150  0012               	return	
  2269  002152                     __end_of_strtok:
  2270                           	opt stack 0
  2271                           tblptru	equ	0xFF8
  2272                           tblptrh	equ	0xFF7
  2273                           tblptrl	equ	0xFF6
  2274                           tablat	equ	0xFF5
  2275                           prodh	equ	0xFF4
  2276                           prodl	equ	0xFF3
  2277                           postinc0	equ	0xFEE
  2278                           wreg	equ	0xFE8
  2279                           postinc1	equ	0xFE6
  2280                           postdec1	equ	0xFE5
  2281                           fsr1l	equ	0xFE1
  2282                           indf2	equ	0xFDF
  2283                           postinc2	equ	0xFDE
  2284                           postdec2	equ	0xFDD
  2285                           fsr2h	equ	0xFDA
  2286                           fsr2l	equ	0xFD9
  2287                           status	equ	0xFD8
  2288                           
  2289 ;; *************** function _strspn *****************
  2290 ;; Defined at:
  2291 ;;		line 4 in file "C:\Program Files (x86)\Microchip\xc8\v1.30\sources\common\strspn.c"
  2292 ;; Parameters:    Size  Location     Type
  2293 ;;  s1              2   25[COMRAM] PTR const unsigned char 
  2294 ;;		 -> NULL(0), rx_temp_buff(45), 
  2295 ;;  s2              2   27[COMRAM] PTR const unsigned char 
  2296 ;;		 -> STR_4(2), STR_3(2), STR_2(2), 
  2297 ;; Auto vars:     Size  Location     Type
  2298 ;;  i               2   30[COMRAM] unsigned int 
  2299 ;; Return value:  Size  Location     Type
  2300 ;;                  2   25[COMRAM] unsigned int 
  2301 ;; Registers used:
  2302 ;;		wreg, fsr2l, fsr2h, status,2, status,0, tblptrl, tblptrh, tblptru, cstack
  2303 ;; Tracked objects:
  2304 ;;		On entry : 0/0
  2305 ;;		On exit  : 0/0
  2306 ;;		Unchanged: 0/0
  2307 ;; Data sizes:     COMRAM   BANK0   BANK1   BANK2   BANK3   BANK4   BANK5
  2308 ;;      Params:         4       0       0       0       0       0       0
  2309 ;;      Locals:         2       0       0       0       0       0       0
  2310 ;;      Temps:          1       0       0       0       0       0       0
  2311 ;;      Totals:         7       0       0       0       0       0       0
  2312 ;;Total ram usage:        7 bytes
  2313 ;; Hardware stack levels used:    1
  2314 ;; Hardware stack levels required when called:    4
  2315 ;; This function calls:
  2316 ;;		_strchr
  2317 ;; This function is called by:
  2318 ;;		_strtok
  2319 ;; This function uses a non-reentrant model
  2320 ;;
  2321                           
  2322                           	psect	text2
  2323  0024B0                     __ptext2:
  2324                           	opt stack 0
  2325  0024B0                     _strspn:
  2326                           	opt stack 25
  2327                           
  2328                           ;incstack = 0
  2329  0024B0  0E00               	movlw	0
  2330  0024B2  6E20               	movwf	strspn@i+1,c
  2331  0024B4  0E00               	movlw	0
  2332  0024B6  6E1F               	movwf	strspn@i,c
  2333  0024B8  D004               	goto	l5748
  2334  0024BA                     l5746:
  2335  0024BA  4A1A               	infsnz	strspn@s1,f,c
  2336  0024BC  2A1B               	incf	strspn@s1+1,f,c
  2337  0024BE  4A1F               	infsnz	strspn@i,f,c
  2338  0024C0  2A20               	incf	strspn@i+1,f,c
  2339  0024C2                     l5748:
  2340  0024C2  C01A  FFD9         	movff	strspn@s1,fsr2l
  2341  0024C6  C01B  FFDA         	movff	strspn@s1+1,fsr2h
  2342  0024CA  50DF               	movf	indf2,w,c
  2343  0024CC  B4D8               	btfsc	status,2,c
  2344  0024CE  D013               	goto	l1469
  2345  0024D0  C01D  F017         	movff	strspn@s2+1,strchr@ptr+1
  2346  0024D4  C01C  F016         	movff	strspn@s2,strchr@ptr
  2347  0024D8  C01A  FFD9         	movff	strspn@s1,fsr2l
  2348  0024DC  C01B  FFDA         	movff	strspn@s1+1,fsr2h
  2349  0024E0  50DF               	movf	indf2,w,c
  2350  0024E2  6E1E               	movwf	??_strspn& (0+255),c
  2351  0024E4  501E               	movf	??_strspn,w,c
  2352  0024E6  6E18               	movwf	strchr@chr,c
  2353  0024E8  6A19               	clrf	strchr@chr+1,c
  2354  0024EA  EC5A  F013         	call	_strchr	;wreg free
  2355  0024EE  5017               	movf	?_strchr+1,w,c
  2356  0024F0  1016               	iorwf	?_strchr,w,c
  2357  0024F2  A4D8               	btfss	status,2,c
  2358  0024F4  D7E2               	goto	l5746
  2359  0024F6                     l1469:
  2360  0024F6  C01F  F01A         	movff	strspn@i,?_strspn
  2361  0024FA  C020  F01B         	movff	strspn@i+1,?_strspn+1
  2362  0024FE  0012               	return	
  2363  002500                     __end_of_strspn:
  2364                           	opt stack 0
  2365                           tblptru	equ	0xFF8
  2366                           tblptrh	equ	0xFF7
  2367                           tblptrl	equ	0xFF6
  2368                           tablat	equ	0xFF5
  2369                           prodh	equ	0xFF4
  2370                           prodl	equ	0xFF3
  2371                           postinc0	equ	0xFEE
  2372                           wreg	equ	0xFE8
  2373                           postinc1	equ	0xFE6
  2374                           postdec1	equ	0xFE5
  2375                           fsr1l	equ	0xFE1
  2376                           indf2	equ	0xFDF
  2377                           postinc2	equ	0xFDE
  2378                           postdec2	equ	0xFDD
  2379                           fsr2h	equ	0xFDA
  2380                           fsr2l	equ	0xFD9
  2381                           status	equ	0xFD8
  2382                           
  2383 ;; *************** function _strcspn *****************
  2384 ;; Defined at:
  2385 ;;		line 4 in file "C:\Program Files (x86)\Microchip\xc8\v1.30\sources\common\strcspn.c"
  2386 ;; Parameters:    Size  Location     Type
  2387 ;;  s1              2   25[COMRAM] PTR const unsigned char 
  2388 ;;		 -> NULL(0), rx_temp_buff(45), 
  2389 ;;  s2              2   27[COMRAM] PTR const unsigned char 
  2390 ;;		 -> STR_4(2), STR_3(2), STR_2(2), 
  2391 ;; Auto vars:     Size  Location     Type
  2392 ;;  i               2   30[COMRAM] unsigned int 
  2393 ;; Return value:  Size  Location     Type
  2394 ;;                  2   25[COMRAM] unsigned int 
  2395 ;; Registers used:
  2396 ;;		wreg, fsr2l, fsr2h, status,2, status,0, tblptrl, tblptrh, tblptru, cstack
  2397 ;; Tracked objects:
  2398 ;;		On entry : 0/0
  2399 ;;		On exit  : 0/0
  2400 ;;		Unchanged: 0/0
  2401 ;; Data sizes:     COMRAM   BANK0   BANK1   BANK2   BANK3   BANK4   BANK5
  2402 ;;      Params:         4       0       0       0       0       0       0
  2403 ;;      Locals:         2       0       0       0       0       0       0
  2404 ;;      Temps:          1       0       0       0       0       0       0
  2405 ;;      Totals:         7       0       0       0       0       0       0
  2406 ;;Total ram usage:        7 bytes
  2407 ;; Hardware stack levels used:    1
  2408 ;; Hardware stack levels required when called:    4
  2409 ;; This function calls:
  2410 ;;		_strchr
  2411 ;; This function is called by:
  2412 ;;		_strtok
  2413 ;; This function uses a non-reentrant model
  2414 ;;
  2415                           
  2416                           	psect	text3
  2417  002500                     __ptext3:
  2418                           	opt stack 0
  2419  002500                     _strcspn:
  2420                           	opt stack 25
  2421                           
  2422                           ;incstack = 0
  2423  002500  0E00               	movlw	0
  2424  002502  6E20               	movwf	strcspn@i+1,c
  2425  002504  0E00               	movlw	0
  2426  002506  6E1F               	movwf	strcspn@i,c
  2427  002508  D004               	goto	l5756
  2428  00250A                     l5754:
  2429  00250A  4A1A               	infsnz	strcspn@s1,f,c
  2430  00250C  2A1B               	incf	strcspn@s1+1,f,c
  2431  00250E  4A1F               	infsnz	strcspn@i,f,c
  2432  002510  2A20               	incf	strcspn@i+1,f,c
  2433  002512                     l5756:
  2434  002512  C01A  FFD9         	movff	strcspn@s1,fsr2l
  2435  002516  C01B  FFDA         	movff	strcspn@s1+1,fsr2h
  2436  00251A  50DF               	movf	indf2,w,c
  2437  00251C  B4D8               	btfsc	status,2,c
  2438  00251E  D013               	goto	l1459
  2439  002520  C01D  F017         	movff	strcspn@s2+1,strchr@ptr+1
  2440  002524  C01C  F016         	movff	strcspn@s2,strchr@ptr
  2441  002528  C01A  FFD9         	movff	strcspn@s1,fsr2l
  2442  00252C  C01B  FFDA         	movff	strcspn@s1+1,fsr2h
  2443  002530  50DF               	movf	indf2,w,c
  2444  002532  6E1E               	movwf	??_strcspn& (0+255),c
  2445  002534  501E               	movf	??_strcspn,w,c
  2446  002536  6E18               	movwf	strchr@chr,c
  2447  002538  6A19               	clrf	strchr@chr+1,c
  2448  00253A  EC5A  F013         	call	_strchr	;wreg free
  2449  00253E  5017               	movf	?_strchr+1,w,c
  2450  002540  1016               	iorwf	?_strchr,w,c
  2451  002542  B4D8               	btfsc	status,2,c
  2452  002544  D7E2               	goto	l5754
  2453  002546                     l1459:
  2454  002546  C01F  F01A         	movff	strcspn@i,?_strcspn
  2455  00254A  C020  F01B         	movff	strcspn@i+1,?_strcspn+1
  2456  00254E  0012               	return	
  2457  002550                     __end_of_strcspn:
  2458                           	opt stack 0
  2459                           tblptru	equ	0xFF8
  2460                           tblptrh	equ	0xFF7
  2461                           tblptrl	equ	0xFF6
  2462                           tablat	equ	0xFF5
  2463                           prodh	equ	0xFF4
  2464                           prodl	equ	0xFF3
  2465                           postinc0	equ	0xFEE
  2466                           wreg	equ	0xFE8
  2467                           postinc1	equ	0xFE6
  2468                           postdec1	equ	0xFE5
  2469                           fsr1l	equ	0xFE1
  2470                           indf2	equ	0xFDF
  2471                           postinc2	equ	0xFDE
  2472                           postdec2	equ	0xFDD
  2473                           fsr2h	equ	0xFDA
  2474                           fsr2l	equ	0xFD9
  2475                           status	equ	0xFD8
  2476                           
  2477 ;; *************** function _strchr *****************
  2478 ;; Defined at:
  2479 ;;		line 4 in file "C:\Program Files (x86)\Microchip\xc8\v1.30\sources\common\strchr.c"
  2480 ;; Parameters:    Size  Location     Type
  2481 ;;  ptr             2   21[COMRAM] PTR const unsigned char 
  2482 ;;		 -> STR_4(2), STR_3(2), STR_2(2), 
  2483 ;;  chr             2   23[COMRAM] int 
  2484 ;; Auto vars:     Size  Location     Type
  2485 ;;		None
  2486 ;; Return value:  Size  Location     Type
  2487 ;;                  2   21[COMRAM] PTR unsigned char 
  2488 ;; Registers used:
  2489 ;;		wreg, status,2, status,0, tblptrl, tblptrh, tblptru
  2490 ;; Tracked objects:
  2491 ;;		On entry : 0/0
  2492 ;;		On exit  : 0/0
  2493 ;;		Unchanged: 0/0
  2494 ;; Data sizes:     COMRAM   BANK0   BANK1   BANK2   BANK3   BANK4   BANK5
  2495 ;;      Params:         4       0       0       0       0       0       0
  2496 ;;      Locals:         0       0       0       0       0       0       0
  2497 ;;      Temps:          0       0       0       0       0       0       0
  2498 ;;      Totals:         4       0       0       0       0       0       0
  2499 ;;Total ram usage:        4 bytes
  2500 ;; Hardware stack levels used:    1
  2501 ;; Hardware stack levels required when called:    3
  2502 ;; This function calls:
  2503 ;;		Nothing
  2504 ;; This function is called by:
  2505 ;;		_strcspn
  2506 ;;		_strspn
  2507 ;; This function uses a non-reentrant model
  2508 ;;
  2509                           
  2510                           	psect	text4
  2511  0026B4                     __ptext4:
  2512                           	opt stack 0
  2513  0026B4                     _strchr:
  2514                           	opt stack 25
  2515  0026B4                     l1473:
  2516  0026B4  C016  FFF6         	movff	strchr@ptr,tblptrl
  2517  0026B8  C017  FFF7         	movff	strchr@ptr+1,tblptrh
  2518  0026BC  0008               	tblrd		*
  2519  0026BE  50F5               	movf	tablat,w,c
  2520  0026C0  1818               	xorwf	strchr@chr,w,c
  2521  0026C2  A4D8               	btfss	status,2,c
  2522  0026C4  D005               	goto	l5772
  2523  0026C6  C017  F017         	movff	strchr@ptr+1,?_strchr+1
  2524  0026CA  C016  F016         	movff	strchr@ptr,?_strchr
  2525  0026CE  0012               	return	
  2526  0026D0                     l5772:
  2527  0026D0  C016  FFF6         	movff	strchr@ptr,tblptrl
  2528  0026D4  C017  FFF7         	movff	strchr@ptr+1,tblptrh
  2529  0026D8  4A16               	infsnz	strchr@ptr,f,c
  2530  0026DA  2A17               	incf	strchr@ptr+1,f,c
  2531  0026DC  0008               	tblrd		*
  2532  0026DE  50F5               	movf	tablat,w,c
  2533  0026E0  0900               	iorlw	0
  2534  0026E2  A4D8               	btfss	status,2,c
  2535  0026E4  D7E7               	goto	l1473
  2536  0026E6  0E00               	movlw	0
  2537  0026E8  6E17               	movwf	?_strchr+1,c
  2538  0026EA  0E00               	movlw	0
  2539  0026EC  6E16               	movwf	?_strchr,c
  2540  0026EE  0012               	return	
  2541  0026F0                     __end_of_strchr:
  2542                           	opt stack 0
  2543                           tblptru	equ	0xFF8
  2544                           tblptrh	equ	0xFF7
  2545                           tblptrl	equ	0xFF6
  2546                           tablat	equ	0xFF5
  2547                           prodh	equ	0xFF4
  2548                           prodl	equ	0xFF3
  2549                           postinc0	equ	0xFEE
  2550                           wreg	equ	0xFE8
  2551                           postinc1	equ	0xFE6
  2552                           postdec1	equ	0xFE5
  2553                           fsr1l	equ	0xFE1
  2554                           indf2	equ	0xFDF
  2555                           postinc2	equ	0xFDE
  2556                           postdec2	equ	0xFDD
  2557                           fsr2h	equ	0xFDA
  2558                           fsr2l	equ	0xFD9
  2559                           status	equ	0xFD8
  2560                           
  2561 ;; *************** function _strlen *****************
  2562 ;; Defined at:
  2563 ;;		line 4 in file "C:\Program Files (x86)\Microchip\xc8\v1.30\sources\common\strlen.c"
  2564 ;; Parameters:    Size  Location     Type
  2565 ;;  s               2   21[COMRAM] PTR const unsigned char 
  2566 ;;		 -> main@surf_buff(60), 
  2567 ;; Auto vars:     Size  Location     Type
  2568 ;;  cp              2   25[COMRAM] PTR const unsigned char 
  2569 ;;		 -> main@surf_buff(60), 
  2570 ;; Return value:  Size  Location     Type
  2571 ;;                  2   21[COMRAM] unsigned int 
  2572 ;; Registers used:
  2573 ;;		wreg, fsr2l, fsr2h, status,2, status,0
  2574 ;; Tracked objects:
  2575 ;;		On entry : 0/0
  2576 ;;		On exit  : 0/0
  2577 ;;		Unchanged: 0/0
  2578 ;; Data sizes:     COMRAM   BANK0   BANK1   BANK2   BANK3   BANK4   BANK5
  2579 ;;      Params:         2       0       0       0       0       0       0
  2580 ;;      Locals:         2       0       0       0       0       0       0
  2581 ;;      Temps:          2       0       0       0       0       0       0
  2582 ;;      Totals:         6       0       0       0       0       0       0
  2583 ;;Total ram usage:        6 bytes
  2584 ;; Hardware stack levels used:    1
  2585 ;; Hardware stack levels required when called:    3
  2586 ;; This function calls:
  2587 ;;		Nothing
  2588 ;; This function is called by:
  2589 ;;		_main
  2590 ;; This function uses a non-reentrant model
  2591 ;;
  2592                           
  2593                           	psect	text5
  2594  0026F0                     __ptext5:
  2595                           	opt stack 0
  2596  0026F0                     _strlen:
  2597                           	opt stack 27
  2598                           
  2599                           ;incstack = 0
  2600  0026F0  C017  F01B         	movff	strlen@s+1,strlen@cp+1
  2601  0026F4  C016  F01A         	movff	strlen@s,strlen@cp
  2602  0026F8  D002               	goto	l5016
  2603  0026FA                     l5014:
  2604  0026FA  4A1A               	infsnz	strlen@cp,f,c
  2605  0026FC  2A1B               	incf	strlen@cp+1,f,c
  2606  0026FE                     l5016:
  2607  0026FE  C01A  FFD9         	movff	strlen@cp,fsr2l
  2608  002702  C01B  FFDA         	movff	strlen@cp+1,fsr2h
  2609  002706  50DF               	movf	indf2,w,c
  2610  002708  A4D8               	btfss	status,2,c
  2611  00270A  D7F7               	goto	l5014
  2612  00270C  C016  F018         	movff	strlen@s,??_strlen
  2613  002710  C017  F019         	movff	strlen@s+1,??_strlen+1
  2614  002714  1E18               	comf	??_strlen,f,c
  2615  002716  1E19               	comf	??_strlen+1,f,c
  2616  002718  4A18               	infsnz	??_strlen,f,c
  2617  00271A  2A19               	incf	??_strlen+1,f,c
  2618  00271C  501A               	movf	strlen@cp,w,c
  2619  00271E  2418               	addwf	??_strlen,w,c
  2620  002720  6E16               	movwf	?_strlen,c
  2621  002722  501B               	movf	strlen@cp+1,w,c
  2622  002724  2019               	addwfc	??_strlen+1,w,c
  2623  002726  6E17               	movwf	?_strlen+1,c
  2624  002728  0012               	return	
  2625  00272A                     __end_of_strlen:
  2626                           	opt stack 0
  2627                           tblptru	equ	0xFF8
  2628                           tblptrh	equ	0xFF7
  2629                           tblptrl	equ	0xFF6
  2630                           tablat	equ	0xFF5
  2631                           prodh	equ	0xFF4
  2632                           prodl	equ	0xFF3
  2633                           postinc0	equ	0xFEE
  2634                           wreg	equ	0xFE8
  2635                           postinc1	equ	0xFE6
  2636                           postdec1	equ	0xFE5
  2637                           fsr1l	equ	0xFE1
  2638                           indf2	equ	0xFDF
  2639                           postinc2	equ	0xFDE
  2640                           postdec2	equ	0xFDD
  2641                           fsr2h	equ	0xFDA
  2642                           fsr2l	equ	0xFD9
  2643                           status	equ	0xFD8
  2644                           
  2645 ;; *************** function _sprintf *****************
  2646 ;; Defined at:
  2647 ;;		line 492 in file "C:\Program Files (x86)\Microchip\xc8\v1.30\sources\common\doprnt.c"
  2648 ;; Parameters:    Size  Location     Type
  2649 ;;  sp              2    0[BANK0 ] PTR unsigned char 
  2650 ;;		 -> main@surf_buff(60), 
  2651 ;;  f               2    2[BANK0 ] PTR const unsigned char 
  2652 ;;		 -> STR_1(37), 
  2653 ;; Auto vars:     Size  Location     Type
  2654 ;;  _val            5   41[COMRAM] struct .
  2655 ;;  ap              2   37[COMRAM] PTR void [1]
  2656 ;;		 -> ?_sprintf(2), 
  2657 ;;  c               1   46[COMRAM] char 
  2658 ;;  prec            1   40[COMRAM] char 
  2659 ;;  flag            1   39[COMRAM] unsigned char 
  2660 ;; Return value:  Size  Location     Type
  2661 ;;                  2    0[BANK0 ] int 
  2662 ;; Registers used:
  2663 ;;		wreg, fsr2l, fsr2h, status,2, status,0, tblptrl, tblptrh, tblptru, prodl, prodh, cstack
  2664 ;; Tracked objects:
  2665 ;;		On entry : 0/0
  2666 ;;		On exit  : 0/0
  2667 ;;		Unchanged: 0/0
  2668 ;; Data sizes:     COMRAM   BANK0   BANK1   BANK2   BANK3   BANK4   BANK5
  2669 ;;      Params:         0      28       0       0       0       0       0
  2670 ;;      Locals:        10       0       0       0       0       0       0
  2671 ;;      Temps:          2       0       0       0       0       0       0
  2672 ;;      Totals:        12      28       0       0       0       0       0
  2673 ;;Total ram usage:       40 bytes
  2674 ;; Hardware stack levels used:    1
  2675 ;; Hardware stack levels required when called:    4
  2676 ;; This function calls:
  2677 ;;		___lwdiv
  2678 ;;		___lwmod
  2679 ;; This function is called by:
  2680 ;;		_main
  2681 ;; This function uses a non-reentrant model
  2682 ;;
  2683                           
  2684                           	psect	text6
  2685  001840                     __ptext6:
  2686                           	opt stack 0
  2687  001840                     _sprintf:
  2688                           	opt stack 26
  2689                           
  2690                           ;doprnt.c: 494: va_list ap;
  2691                           ;doprnt.c: 499: signed char c;
  2692                           ;doprnt.c: 506: signed char prec;
  2693                           ;doprnt.c: 508: unsigned char flag;
  2694                           ;doprnt.c: 527: union {
  2695                           ;doprnt.c: 528: unsigned int _val;
  2696                           ;doprnt.c: 529: struct {
  2697                           ;doprnt.c: 530: const char * _cp;
  2698                           ;doprnt.c: 531: unsigned _len;
  2699                           ;doprnt.c: 532: } _str;
  2700                           ;doprnt.c: 533: } _val;
  2701                           ;doprnt.c: 542: *ap = __va_start();
  2702                           
  2703                           ;incstack = 0
  2704  001840  0100               	movlb	0	; () banked
  2705  001842  0E00               	movlw	high (?_sprintf+4)
  2706  001844  6E27               	movwf	sprintf@ap+1,c
  2707  001846  0100               	movlb	0	; () banked
  2708  001848  0E64               	movlw	low (?_sprintf+4)
  2709  00184A  6E26               	movwf	sprintf@ap,c
  2710                           
  2711                           ;doprnt.c: 545: while(c = *f++) {
  2712  00184C  D0A6               	goto	l6282
  2713  00184E                     l6230:
  2714                           
  2715                           ;doprnt.c: 547: if(c != '%')
  2716  00184E  502F               	movf	sprintf@c,w,c
  2717  001850  0A25               	xorlw	37
  2718  001852  B4D8               	btfsc	status,2,c
  2719  001854  D00B               	goto	l6236
  2720                           
  2721                           ;doprnt.c: 549: {
  2722                           ;doprnt.c: 550: ((*sp++ = (c)));
  2723  001856  C060  FFD9         	movff	sprintf@sp,fsr2l
  2724  00185A  C061  FFDA         	movff	sprintf@sp+1,fsr2h
  2725  00185E  C02F  FFDF         	movff	sprintf@c,indf2
  2726  001862  0100               	movlb	0	; () banked
  2727  001864  0100               	movlb	0	; () banked
  2728  001866  4B60               	infsnz	sprintf@sp& (0+255),f,b
  2729  001868  2B61               	incf	(sprintf@sp+1)& (0+255),f,b
  2730                           
  2731                           ;doprnt.c: 551: continue;
  2732  00186A  D097               	goto	l6282
  2733  00186C                     l6236:
  2734                           
  2735                           ;doprnt.c: 552: }
  2736                           ;doprnt.c: 557: flag = 0;
  2737  00186C  6E24               	movwf	??_sprintf& (0+255),c
  2738  00186E  0E00               	movlw	0
  2739  001870  6E28               	movwf	sprintf@flag,c
  2740  001872  5024               	movf	??_sprintf& (0+255),w,c
  2741                           
  2742                           ;doprnt.c: 831: }
  2743                           
  2744                           ;doprnt.c: 822: continue;
  2745                           
  2746                           ;doprnt.c: 811: default:
  2747                           
  2748                           ;doprnt.c: 707: case 'i':
  2749                           ;doprnt.c: 708: break;
  2750                           
  2751                           ;doprnt.c: 706: case 'd':
  2752                           
  2753                           ;doprnt.c: 647: goto alldone;
  2754                           
  2755                           ;doprnt.c: 646: case 0:
  2756                           
  2757                           ;doprnt.c: 644: switch(c = *f++) {
  2758  001874  0100               	movlb	0	; () banked
  2759  001876  C062  FFF6         	movff	sprintf@f,tblptrl
  2760  00187A  0100               	movlb	0	; () banked
  2761  00187C  C063  FFF7         	movff	sprintf@f+1,tblptrh
  2762  001880  0100               	movlb	0	; () banked
  2763  001882  0100               	movlb	0	; () banked
  2764  001884  4B62               	infsnz	sprintf@f& (0+255),f,b
  2765  001886  2B63               	incf	(sprintf@f+1)& (0+255),f,b
  2766  001888  0008               	tblrd		*
  2767  00188A  CFF5 F02F          	movff	tablat,sprintf@c
  2768  00188E  502F               	movf	sprintf@c& (0+255),w,c
  2769                           
  2770                           ; Switch size 1, requested type "space"
  2771                           ; Number of cases is 3, Range of values is 0 to 105
  2772                           ; switch strategies available:
  2773                           ; Name         Instructions Cycles
  2774                           ; simple_byte           10     6 (average)
  2775                           ;	Chosen strategy is simple_byte
  2776  001890  0A00               	xorlw	0	; case 0
  2777  001892  B4D8               	btfsc	status,2,c
  2778  001894  D091               	goto	l6284
  2779  001896  0A64               	xorlw	100	; case 100
  2780  001898  B4D8               	btfsc	status,2,c
  2781  00189A  D003               	goto	l6242
  2782  00189C  0A0D               	xorlw	13	; case 105
  2783  00189E  A4D8               	btfss	status,2,c
  2784  0018A0  D07C               	goto	l6282
  2785  0018A2                     l6242:
  2786                           
  2787                           ;doprnt.c: 1262: {
  2788                           ;doprnt.c: 1268: _val._val = (int)(*(int *)__va_arg((*(int **)ap), (int)0));
  2789  0018A2  C026  FFD9         	movff	sprintf@ap,fsr2l
  2790  0018A6  C027  FFDA         	movff	sprintf@ap+1,fsr2h
  2791  0018AA  CFDE F02A          	movff	postinc2,sprintf@_val
  2792  0018AE  CFDD F02B          	movff	postdec2,sprintf@_val+1
  2793  0018B2  0E02               	movlw	2
  2794  0018B4  2626               	addwf	sprintf@ap,f,c
  2795  0018B6  0E00               	movlw	0
  2796  0018B8  2227               	addwfc	sprintf@ap+1,f,c
  2797                           
  2798                           ;doprnt.c: 1270: if((int)_val._val < 0) {
  2799  0018BA  502B               	movf	sprintf@_val+1,w,c
  2800  0018BC  0A80               	xorlw	128
  2801  0018BE  6EF3               	movwf	prodl,c
  2802  0018C0  0E80               	movlw	128
  2803  0018C2  5CF3               	subwf	prodl,w,c
  2804  0018C4  0E00               	movlw	0
  2805  0018C6  B4D8               	btfsc	status,2,c
  2806  0018C8  5C2A               	subwf	sprintf@_val,w,c
  2807  0018CA  B0D8               	btfsc	status,0,c
  2808  0018CC  D006               	goto	l6252
  2809                           
  2810                           ;doprnt.c: 1271: flag |= 0x03;
  2811  0018CE  0E03               	movlw	3
  2812  0018D0  1228               	iorwf	sprintf@flag,f,c
  2813                           
  2814                           ;doprnt.c: 1272: _val._val = -_val._val;
  2815  0018D2  6C2A               	negf	sprintf@_val,c
  2816  0018D4  1E2B               	comf	sprintf@_val+1,f,c
  2817  0018D6  B0D8               	btfsc	status,0,c
  2818  0018D8  2A2B               	incf	sprintf@_val+1,f,c
  2819  0018DA                     l6252:
  2820                           
  2821                           ;doprnt.c: 1273: }
  2822                           ;doprnt.c: 1275: }
  2823                           ;doprnt.c: 1314: for(c = 1 ; c != sizeof dpowers/sizeof dpowers[0] ; c++)
  2824  0018DA  6E24               	movwf	??_sprintf& (0+255),c
  2825  0018DC  0E01               	movlw	1
  2826  0018DE  6E2F               	movwf	sprintf@c,c
  2827  0018E0  5024               	movf	??_sprintf& (0+255),w,c
  2828  0018E2  502F               	movf	sprintf@c,w,c
  2829  0018E4  0A05               	xorlw	5
  2830  0018E6  B4D8               	btfsc	status,2,c
  2831  0018E8  D016               	goto	l6266
  2832                           
  2833                           ;doprnt.c: 1315: if(_val._val < dpowers[c])
  2834  0018EA  502F               	movf	sprintf@c,w,c
  2835  0018EC  0D02               	mullw	2
  2836  0018EE  0E01               	movlw	low _dpowers
  2837  0018F0  24F3               	addwf	prodl,w,c
  2838  0018F2  6EF6               	movwf	tblptrl,c
  2839  0018F4  0E06               	movlw	high _dpowers
  2840  0018F6  20F4               	addwfc	prodh,w,c
  2841  0018F8  6EF7               	movwf	tblptrh,c
  2842  0018FA  0009               	tblrd		*+
  2843  0018FC  CFF5 F024          	movff	tablat,??_sprintf
  2844  001900  0009               	tblrd		*+
  2845  001902  CFF5 F025          	movff	tablat,??_sprintf+1
  2846  001906  5024               	movf	??_sprintf,w,c
  2847  001908  5C2A               	subwf	sprintf@_val,w,c
  2848  00190A  5025               	movf	??_sprintf+1,w,c
  2849  00190C  582B               	subwfb	sprintf@_val+1,w,c
  2850  00190E  A0D8               	btfss	status,0,c
  2851  001910  D002               	goto	l6266
  2852                           
  2853                           ;doprnt.c: 1316: break;
  2854  001912  2A2F               	incf	sprintf@c,f,c
  2855  001914  D7E6               	goto	L2
  2856  001916                     l6266:
  2857                           
  2858                           ;doprnt.c: 1431: {
  2859                           ;doprnt.c: 1447: if(flag & 0x03)
  2860  001916  C028  F024         	movff	sprintf@flag,??_sprintf
  2861  00191A  0E03               	movlw	3
  2862  00191C  1624               	andwf	??_sprintf,f,c
  2863  00191E  B4D8               	btfsc	status,2,c
  2864  001920  D00A               	goto	l6272
  2865                           
  2866                           ;doprnt.c: 1448: ((*sp++ = ('-')));
  2867  001922  C060  FFD9         	movff	sprintf@sp,fsr2l
  2868  001926  C061  FFDA         	movff	sprintf@sp+1,fsr2h
  2869  00192A  0E2D               	movlw	45
  2870  00192C  6EDF               	movwf	indf2,c
  2871  00192E  0100               	movlb	0	; () banked
  2872  001930  0100               	movlb	0	; () banked
  2873  001932  4B60               	infsnz	sprintf@sp& (0+255),f,b
  2874  001934  2B61               	incf	(sprintf@sp+1)& (0+255),f,b
  2875  001936                     l6272:
  2876                           
  2877                           ;doprnt.c: 1478: }
  2878                           ;doprnt.c: 1481: prec = c;
  2879  001936  C02F  F029         	movff	sprintf@c,sprintf@prec
  2880                           
  2881                           ;doprnt.c: 1483: while(prec--) {
  2882  00193A  D02B               	goto	l6280
  2883  00193C                     l6274:
  2884                           
  2885                           ;doprnt.c: 1487: {
  2886                           ;doprnt.c: 1498: c = (_val._val / dpowers[prec]) % 10 + '0';
  2887  00193C  5029               	movf	sprintf@prec,w,c
  2888  00193E  0D02               	mullw	2
  2889  001940  0E01               	movlw	low _dpowers
  2890  001942  24F3               	addwf	prodl,w,c
  2891  001944  6EF6               	movwf	tblptrl,c
  2892  001946  0E06               	movlw	high _dpowers
  2893  001948  20F4               	addwfc	prodh,w,c
  2894  00194A  6EF7               	movwf	tblptrh,c
  2895  00194C  0009               	tblrd		*+
  2896  00194E  CFF5 F018          	movff	tablat,___lwdiv@divisor
  2897  001952  000A               	tblrd		*-
  2898  001954  CFF5 F019          	movff	tablat,___lwdiv@divisor+1
  2899  001958  C02A  F016         	movff	sprintf@_val,___lwdiv@dividend
  2900  00195C  C02B  F017         	movff	sprintf@_val+1,___lwdiv@dividend+1
  2901  001960  EC03  F012         	call	___lwdiv	;wreg free
  2902  001964  C016  F01E         	movff	?___lwdiv,___lwmod@dividend
  2903  001968  C017  F01F         	movff	?___lwdiv+1,___lwmod@dividend+1
  2904  00196C  0E00               	movlw	0
  2905  00196E  6E21               	movwf	___lwmod@divisor+1,c
  2906  001970  0E0A               	movlw	10
  2907  001972  6E20               	movwf	___lwmod@divisor,c
  2908  001974  ECF5  F012         	call	___lwmod	;wreg free
  2909  001978  501E               	movf	?___lwmod,w,c
  2910  00197A  0F30               	addlw	48
  2911  00197C  6E2F               	movwf	sprintf@c,c
  2912                           
  2913                           ;doprnt.c: 1532: }
  2914                           ;doprnt.c: 1533: ((*sp++ = (c)));
  2915  00197E  C060  FFD9         	movff	sprintf@sp,fsr2l
  2916  001982  C061  FFDA         	movff	sprintf@sp+1,fsr2h
  2917  001986  C02F  FFDF         	movff	sprintf@c,indf2
  2918  00198A  0100               	movlb	0	; () banked
  2919  00198C  0100               	movlb	0	; () banked
  2920  00198E  4B60               	infsnz	sprintf@sp& (0+255),f,b
  2921  001990  2B61               	incf	(sprintf@sp+1)& (0+255),f,b
  2922  001992                     l6280:
  2923  001992  0629               	decf	sprintf@prec,f,c
  2924  001994  2829               	incf	sprintf@prec& (0+255),w,c
  2925  001996  A4D8               	btfss	status,2,c
  2926  001998  D7D1               	goto	l6274
  2927  00199A                     l6282:
  2928  00199A  0100               	movlb	0	; () banked
  2929  00199C  C062  FFF6         	movff	sprintf@f,tblptrl
  2930  0019A0  0100               	movlb	0	; () banked
  2931  0019A2  C063  FFF7         	movff	sprintf@f+1,tblptrh
  2932  0019A6  0100               	movlb	0	; () banked
  2933  0019A8  0100               	movlb	0	; () banked
  2934  0019AA  4B62               	infsnz	sprintf@f& (0+255),f,b
  2935  0019AC  2B63               	incf	(sprintf@f+1)& (0+255),f,b
  2936  0019AE  0008               	tblrd		*
  2937  0019B0  CFF5 F02F          	movff	tablat,sprintf@c
  2938  0019B4  662F               	tstfsz	sprintf@c& (0+255),c
  2939  0019B6  D74B               	goto	l6230
  2940  0019B8                     l6284:
  2941                           
  2942                           ;doprnt.c: 1547: *sp = 0;
  2943  0019B8  C060  FFD9         	movff	sprintf@sp,fsr2l
  2944  0019BC  C061  FFDA         	movff	sprintf@sp+1,fsr2h
  2945  0019C0  0E00               	movlw	0
  2946  0019C2  6EDF               	movwf	indf2,c
  2947  0019C4  0012               	return	
  2948  0019C6                     __end_of_sprintf:
  2949                           	opt stack 0
  2950                           tblptru	equ	0xFF8
  2951                           tblptrh	equ	0xFF7
  2952                           tblptrl	equ	0xFF6
  2953                           tablat	equ	0xFF5
  2954                           prodh	equ	0xFF4
  2955                           prodl	equ	0xFF3
  2956                           postinc0	equ	0xFEE
  2957                           wreg	equ	0xFE8
  2958                           postinc1	equ	0xFE6
  2959                           postdec1	equ	0xFE5
  2960                           fsr1l	equ	0xFE1
  2961                           indf2	equ	0xFDF
  2962                           postinc2	equ	0xFDE
  2963                           postdec2	equ	0xFDD
  2964                           fsr2h	equ	0xFDA
  2965                           fsr2l	equ	0xFD9
  2966                           status	equ	0xFD8
  2967                           
  2968 ;; *************** function ___lwmod *****************
  2969 ;; Defined at:
  2970 ;;		line 8 in file "C:\Program Files (x86)\Microchip\xc8\v1.30\sources\common\lwmod.c"
  2971 ;; Parameters:    Size  Location     Type
  2972 ;;  dividend        2   29[COMRAM] unsigned int 
  2973 ;;  divisor         2   31[COMRAM] unsigned int 
  2974 ;; Auto vars:     Size  Location     Type
  2975 ;;  counter         1   34[COMRAM] unsigned char 
  2976 ;; Return value:  Size  Location     Type
  2977 ;;                  2   29[COMRAM] unsigned int 
  2978 ;; Registers used:
  2979 ;;		wreg, status,2, status,0
  2980 ;; Tracked objects:
  2981 ;;		On entry : 0/0
  2982 ;;		On exit  : 0/0
  2983 ;;		Unchanged: 0/0
  2984 ;; Data sizes:     COMRAM   BANK0   BANK1   BANK2   BANK3   BANK4   BANK5
  2985 ;;      Params:         4       0       0       0       0       0       0
  2986 ;;      Locals:         1       0       0       0       0       0       0
  2987 ;;      Temps:          1       0       0       0       0       0       0
  2988 ;;      Totals:         6       0       0       0       0       0       0
  2989 ;;Total ram usage:        6 bytes
  2990 ;; Hardware stack levels used:    1
  2991 ;; Hardware stack levels required when called:    3
  2992 ;; This function calls:
  2993 ;;		Nothing
  2994 ;; This function is called by:
  2995 ;;		_sprintf
  2996 ;; This function uses a non-reentrant model
  2997 ;;
  2998                           
  2999                           	psect	text7
  3000  0025EA                     __ptext7:
  3001                           	opt stack 0
  3002  0025EA                     ___lwmod:
  3003                           	opt stack 26
  3004                           
  3005                           ;incstack = 0
  3006  0025EA  5021               	movf	___lwmod@divisor+1,w,c
  3007  0025EC  1020               	iorwf	___lwmod@divisor,w,c
  3008  0025EE  B4D8               	btfsc	status,2,c
  3009  0025F0  D01A               	goto	l1378
  3010  0025F2  6E22               	movwf	??___lwmod& (0+255),c
  3011  0025F4  0E01               	movlw	1
  3012  0025F6  6E23               	movwf	___lwmod@counter,c
  3013  0025F8  5022               	movf	??___lwmod& (0+255),w,c
  3014  0025FA  D004               	goto	l6728
  3015  0025FC                     l6726:
  3016  0025FC  90D8               	bcf	status,0,c
  3017  0025FE  3620               	rlcf	___lwmod@divisor,f,c
  3018  002600  3621               	rlcf	___lwmod@divisor+1,f,c
  3019  002602  2A23               	incf	___lwmod@counter,f,c
  3020  002604                     l6728:
  3021  002604  AE21               	btfss	___lwmod@divisor+1,7,c
  3022  002606  D7FA               	goto	l6726
  3023  002608                     l6730:
  3024  002608  5020               	movf	___lwmod@divisor,w,c
  3025  00260A  5C1E               	subwf	___lwmod@dividend,w,c
  3026  00260C  5021               	movf	___lwmod@divisor+1,w,c
  3027  00260E  581F               	subwfb	___lwmod@dividend+1,w,c
  3028  002610  A0D8               	btfss	status,0,c
  3029  002612  D004               	goto	l6734
  3030  002614  5020               	movf	___lwmod@divisor,w,c
  3031  002616  5E1E               	subwf	___lwmod@dividend,f,c
  3032  002618  5021               	movf	___lwmod@divisor+1,w,c
  3033  00261A  5A1F               	subwfb	___lwmod@dividend+1,f,c
  3034  00261C                     l6734:
  3035  00261C  90D8               	bcf	status,0,c
  3036  00261E  3221               	rrcf	___lwmod@divisor+1,f,c
  3037  002620  3220               	rrcf	___lwmod@divisor,f,c
  3038  002622  2E23               	decfsz	___lwmod@counter,f,c
  3039  002624  D7F1               	goto	l6730
  3040  002626                     l1378:
  3041  002626  C01E  F01E         	movff	___lwmod@dividend,?___lwmod
  3042  00262A  C01F  F01F         	movff	___lwmod@dividend+1,?___lwmod+1
  3043  00262E  0012               	return	
  3044  002630                     __end_of___lwmod:
  3045                           	opt stack 0
  3046                           tblptru	equ	0xFF8
  3047                           tblptrh	equ	0xFF7
  3048                           tblptrl	equ	0xFF6
  3049                           tablat	equ	0xFF5
  3050                           prodh	equ	0xFF4
  3051                           prodl	equ	0xFF3
  3052                           postinc0	equ	0xFEE
  3053                           wreg	equ	0xFE8
  3054                           postinc1	equ	0xFE6
  3055                           postdec1	equ	0xFE5
  3056                           fsr1l	equ	0xFE1
  3057                           indf2	equ	0xFDF
  3058                           postinc2	equ	0xFDE
  3059                           postdec2	equ	0xFDD
  3060                           fsr2h	equ	0xFDA
  3061                           fsr2l	equ	0xFD9
  3062                           status	equ	0xFD8
  3063                           
  3064 ;; *************** function ___lwdiv *****************
  3065 ;; Defined at:
  3066 ;;		line 8 in file "C:\Program Files (x86)\Microchip\xc8\v1.30\sources\common\lwdiv.c"
  3067 ;; Parameters:    Size  Location     Type
  3068 ;;  dividend        2   21[COMRAM] unsigned int 
  3069 ;;  divisor         2   23[COMRAM] unsigned int 
  3070 ;; Auto vars:     Size  Location     Type
  3071 ;;  quotient        2   27[COMRAM] unsigned int 
  3072 ;;  counter         1   26[COMRAM] unsigned char 
  3073 ;; Return value:  Size  Location     Type
  3074 ;;                  2   21[COMRAM] unsigned int 
  3075 ;; Registers used:
  3076 ;;		wreg, status,2, status,0
  3077 ;; Tracked objects:
  3078 ;;		On entry : 0/0
  3079 ;;		On exit  : 0/0
  3080 ;;		Unchanged: 0/0
  3081 ;; Data sizes:     COMRAM   BANK0   BANK1   BANK2   BANK3   BANK4   BANK5
  3082 ;;      Params:         4       0       0       0       0       0       0
  3083 ;;      Locals:         3       0       0       0       0       0       0
  3084 ;;      Temps:          1       0       0       0       0       0       0
  3085 ;;      Totals:         8       0       0       0       0       0       0
  3086 ;;Total ram usage:        8 bytes
  3087 ;; Hardware stack levels used:    1
  3088 ;; Hardware stack levels required when called:    3
  3089 ;; This function calls:
  3090 ;;		Nothing
  3091 ;; This function is called by:
  3092 ;;		_sprintf
  3093 ;; This function uses a non-reentrant model
  3094 ;;
  3095                           
  3096                           	psect	text8
  3097  002406                     __ptext8:
  3098                           	opt stack 0
  3099  002406                     ___lwdiv:
  3100                           	opt stack 26
  3101                           
  3102                           ;incstack = 0
  3103  002406  0E00               	movlw	0
  3104  002408  6E1D               	movwf	___lwdiv@quotient+1,c
  3105  00240A  0E00               	movlw	0
  3106  00240C  6E1C               	movwf	___lwdiv@quotient,c
  3107  00240E  5019               	movf	___lwdiv@divisor+1,w,c
  3108  002410  1018               	iorwf	___lwdiv@divisor,w,c
  3109  002412  B4D8               	btfsc	status,2,c
  3110  002414  D01E               	goto	l1368
  3111  002416  6E1A               	movwf	??___lwdiv& (0+255),c
  3112  002418  0E01               	movlw	1
  3113  00241A  6E1B               	movwf	___lwdiv@counter,c
  3114  00241C  501A               	movf	??___lwdiv& (0+255),w,c
  3115  00241E  D004               	goto	l6708
  3116  002420                     l6706:
  3117  002420  90D8               	bcf	status,0,c
  3118  002422  3618               	rlcf	___lwdiv@divisor,f,c
  3119  002424  3619               	rlcf	___lwdiv@divisor+1,f,c
  3120  002426  2A1B               	incf	___lwdiv@counter,f,c
  3121  002428                     l6708:
  3122  002428  AE19               	btfss	___lwdiv@divisor+1,7,c
  3123  00242A  D7FA               	goto	l6706
  3124  00242C                     l6710:
  3125  00242C  90D8               	bcf	status,0,c
  3126  00242E  361C               	rlcf	___lwdiv@quotient,f,c
  3127  002430  361D               	rlcf	___lwdiv@quotient+1,f,c
  3128  002432  5018               	movf	___lwdiv@divisor,w,c
  3129  002434  5C16               	subwf	___lwdiv@dividend,w,c
  3130  002436  5019               	movf	___lwdiv@divisor+1,w,c
  3131  002438  5817               	subwfb	___lwdiv@dividend+1,w,c
  3132  00243A  A0D8               	btfss	status,0,c
  3133  00243C  D005               	goto	l6718
  3134  00243E  5018               	movf	___lwdiv@divisor,w,c
  3135  002440  5E16               	subwf	___lwdiv@dividend,f,c
  3136  002442  5019               	movf	___lwdiv@divisor+1,w,c
  3137  002444  5A17               	subwfb	___lwdiv@dividend+1,f,c
  3138  002446  801C               	bsf	___lwdiv@quotient,0,c
  3139  002448                     l6718:
  3140  002448  90D8               	bcf	status,0,c
  3141  00244A  3219               	rrcf	___lwdiv@divisor+1,f,c
  3142  00244C  3218               	rrcf	___lwdiv@divisor,f,c
  3143  00244E  2E1B               	decfsz	___lwdiv@counter,f,c
  3144  002450  D7ED               	goto	l6710
  3145  002452                     l1368:
  3146  002452  C01C  F016         	movff	___lwdiv@quotient,?___lwdiv
  3147  002456  C01D  F017         	movff	___lwdiv@quotient+1,?___lwdiv+1
  3148  00245A  0012               	return	
  3149  00245C                     __end_of___lwdiv:
  3150                           	opt stack 0
  3151                           tblptru	equ	0xFF8
  3152                           tblptrh	equ	0xFF7
  3153                           tblptrl	equ	0xFF6
  3154                           tablat	equ	0xFF5
  3155                           prodh	equ	0xFF4
  3156                           prodl	equ	0xFF3
  3157                           postinc0	equ	0xFEE
  3158                           wreg	equ	0xFE8
  3159                           postinc1	equ	0xFE6
  3160                           postdec1	equ	0xFE5
  3161                           fsr1l	equ	0xFE1
  3162                           indf2	equ	0xFDF
  3163                           postinc2	equ	0xFDE
  3164                           postdec2	equ	0xFDD
  3165                           fsr2h	equ	0xFDA
  3166                           fsr2l	equ	0xFD9
  3167                           status	equ	0xFD8
  3168                           
  3169 ;; *************** function _puts1USART *****************
  3170 ;; Defined at:
  3171 ;;		line 14 in file "C:\Program Files (x86)\Microchip\xc8\v1.30\sources\pic18\plib\USART\u1puts.c"
  3172 ;; Parameters:    Size  Location     Type
  3173 ;;  data            2   22[COMRAM] PTR unsigned char 
  3174 ;;		 -> rx_temp_buff(45), 
  3175 ;; Auto vars:     Size  Location     Type
  3176 ;;		None
  3177 ;; Return value:  Size  Location     Type
  3178 ;;		None               void
  3179 ;; Registers used:
  3180 ;;		wreg, fsr2l, fsr2h, status,2, status,0, cstack
  3181 ;; Tracked objects:
  3182 ;;		On entry : 0/0
  3183 ;;		On exit  : 0/0
  3184 ;;		Unchanged: 0/0
  3185 ;; Data sizes:     COMRAM   BANK0   BANK1   BANK2   BANK3   BANK4   BANK5
  3186 ;;      Params:         2       0       0       0       0       0       0
  3187 ;;      Locals:         0       0       0       0       0       0       0
  3188 ;;      Temps:          0       0       0       0       0       0       0
  3189 ;;      Totals:         2       0       0       0       0       0       0
  3190 ;;Total ram usage:        2 bytes
  3191 ;; Hardware stack levels used:    1
  3192 ;; Hardware stack levels required when called:    4
  3193 ;; This function calls:
  3194 ;;		_Write1USART
  3195 ;; This function is called by:
  3196 ;;		_main
  3197 ;; This function uses a non-reentrant model
  3198 ;;
  3199                           
  3200                           	psect	text9
  3201  002928                     __ptext9:
  3202                           	opt stack 0
  3203  002928                     _puts1USART:
  3204                           	opt stack 26
  3205  002928                     l695:
  3206  002928  A2AC               	btfss	4012,1,c	;volatile
  3207  00292A  D7FE               	goto	l695
  3208  00292C  C017  FFD9         	movff	puts1USART@data,fsr2l
  3209  002930  C018  FFDA         	movff	puts1USART@data+1,fsr2h
  3210  002934  50DF               	movf	indf2,w,c
  3211  002936  ECD6  F014         	call	_Write1USART
  3212  00293A  C017  FFD9         	movff	puts1USART@data,fsr2l
  3213  00293E  C018  FFDA         	movff	puts1USART@data+1,fsr2h
  3214  002942  4A17               	infsnz	puts1USART@data,f,c
  3215  002944  2A18               	incf	puts1USART@data+1,f,c
  3216  002946  50DF               	movf	indf2,w,c
  3217  002948  B4D8               	btfsc	status,2,c
  3218  00294A  0012               	return	
  3219  00294C  D7ED               	goto	l695
  3220  00294E                     __end_of_puts1USART:
  3221                           	opt stack 0
  3222                           tblptru	equ	0xFF8
  3223                           tblptrh	equ	0xFF7
  3224                           tblptrl	equ	0xFF6
  3225                           tablat	equ	0xFF5
  3226                           prodh	equ	0xFF4
  3227                           prodl	equ	0xFF3
  3228                           postinc0	equ	0xFEE
  3229                           wreg	equ	0xFE8
  3230                           postinc1	equ	0xFE6
  3231                           postdec1	equ	0xFE5
  3232                           fsr1l	equ	0xFE1
  3233                           indf2	equ	0xFDF
  3234                           postinc2	equ	0xFDE
  3235                           postdec2	equ	0xFDD
  3236                           fsr2h	equ	0xFDA
  3237                           fsr2l	equ	0xFD9
  3238                           status	equ	0xFD8
  3239                           
  3240 ;; *************** function _atoi *****************
  3241 ;; Defined at:
  3242 ;;		line 5 in file "C:\Program Files (x86)\Microchip\xc8\v1.30\sources\common\atoi.c"
  3243 ;; Parameters:    Size  Location     Type
  3244 ;;  s               2   38[COMRAM] PTR const unsigned char 
  3245 ;;		 -> NULL(0), rx_temp_buff(45), 
  3246 ;; Auto vars:     Size  Location     Type
  3247 ;;  a               2   43[COMRAM] int 
  3248 ;;  sign            1   42[COMRAM] unsigned char 
  3249 ;; Return value:  Size  Location     Type
  3250 ;;                  2   38[COMRAM] int 
  3251 ;; Registers used:
  3252 ;;		wreg, fsr2l, fsr2h, status,2, status,0, prodl, prodh, cstack
  3253 ;; Tracked objects:
  3254 ;;		On entry : 0/0
  3255 ;;		On exit  : 0/0
  3256 ;;		Unchanged: 0/0
  3257 ;; Data sizes:     COMRAM   BANK0   BANK1   BANK2   BANK3   BANK4   BANK5
  3258 ;;      Params:         2       0       0       0       0       0       0
  3259 ;;      Locals:         3       0       0       0       0       0       0
  3260 ;;      Temps:          2       0       0       0       0       0       0
  3261 ;;      Totals:         7       0       0       0       0       0       0
  3262 ;;Total ram usage:        7 bytes
  3263 ;; Hardware stack levels used:    1
  3264 ;; Hardware stack levels required when called:    4
  3265 ;; This function calls:
  3266 ;;		___wmul
  3267 ;;		_isdigit
  3268 ;; This function is called by:
  3269 ;;		_main
  3270 ;; This function uses a non-reentrant model
  3271 ;;
  3272                           
  3273                           	psect	text10
  3274  001F18                     __ptext10:
  3275                           	opt stack 0
  3276  001F18                     _atoi:
  3277                           	opt stack 26
  3278                           
  3279                           ;incstack = 0
  3280  001F18  D002               	goto	l5078
  3281  001F1A                     l5076:
  3282  001F1A  4A27               	infsnz	atoi@s,f,c
  3283  001F1C  2A28               	incf	atoi@s+1,f,c
  3284  001F1E                     l5078:
  3285  001F1E  C027  FFD9         	movff	atoi@s,fsr2l
  3286  001F22  C028  FFDA         	movff	atoi@s+1,fsr2h
  3287  001F26  50DF               	movf	indf2,w,c
  3288  001F28  0A20               	xorlw	32
  3289  001F2A  B4D8               	btfsc	status,2,c
  3290  001F2C  D7F6               	goto	l5076
  3291  001F2E  C027  FFD9         	movff	atoi@s,fsr2l
  3292  001F32  C028  FFDA         	movff	atoi@s+1,fsr2h
  3293  001F36  50DF               	movf	indf2,w,c
  3294  001F38  0A09               	xorlw	9
  3295  001F3A  B4D8               	btfsc	status,2,c
  3296  001F3C  D7EE               	goto	l5076
  3297  001F3E  0E00               	movlw	0
  3298  001F40  6E2D               	movwf	atoi@a+1,c
  3299  001F42  0E00               	movlw	0
  3300  001F44  6E2C               	movwf	atoi@a,c
  3301  001F46  6E29               	movwf	??_atoi& (0+255),c
  3302  001F48  0E00               	movlw	0
  3303  001F4A  6E2B               	movwf	atoi@sign,c
  3304  001F4C  5029               	movf	??_atoi& (0+255),w,c
  3305  001F4E  0E2D               	movlw	45
  3306  001F50  C027  FFD9         	movff	atoi@s,fsr2l
  3307  001F54  C028  FFDA         	movff	atoi@s+1,fsr2h
  3308  001F58  62DF               	cpfseq	indf2,c
  3309  001F5A  D002               	goto	l5090
  3310  001F5C  2A2B               	incf	atoi@sign,f,c
  3311  001F5E  D023               	goto	L3
  3312  001F60                     l5090:
  3313  001F60  0E2B               	movlw	43
  3314  001F62  C027  FFD9         	movff	atoi@s,fsr2l
  3315  001F66  C028  FFDA         	movff	atoi@s+1,fsr2h
  3316  001F6A  62DF               	cpfseq	indf2,c
  3317  001F6C  D01E               	goto	l5098
  3318  001F6E  D01B               	goto	L3
  3319  001F70                     l5094:
  3320  001F70  C02C  F01F         	movff	atoi@a,___wmul@multiplier
  3321  001F74  C02D  F020         	movff	atoi@a+1,___wmul@multiplier+1
  3322  001F78  0E00               	movlw	0
  3323  001F7A  6E22               	movwf	___wmul@multiplicand+1,c
  3324  001F7C  0E0A               	movlw	10
  3325  001F7E  6E21               	movwf	___wmul@multiplicand,c
  3326  001F80  EC95  F013         	call	___wmul	;wreg free
  3327  001F84  C027  FFD9         	movff	atoi@s,fsr2l
  3328  001F88  C028  FFDA         	movff	atoi@s+1,fsr2h
  3329  001F8C  50DF               	movf	indf2,w,c
  3330  001F8E  6E29               	movwf	??_atoi& (0+255),c
  3331  001F90  6A2A               	clrf	(??_atoi+1)& (0+255),c
  3332  001F92  501F               	movf	?___wmul,w,c
  3333  001F94  2629               	addwf	??_atoi,f,c
  3334  001F96  5020               	movf	?___wmul+1,w,c
  3335  001F98  222A               	addwfc	??_atoi+1,f,c
  3336  001F9A  0ED0               	movlw	208
  3337  001F9C  2429               	addwf	??_atoi,w,c
  3338  001F9E  6E2C               	movwf	atoi@a,c
  3339  001FA0  0EFF               	movlw	255
  3340  001FA2  202A               	addwfc	??_atoi+1,w,c
  3341  001FA4  6E2D               	movwf	atoi@a+1,c
  3342  001FA6                     L3:
  3343  001FA6  4A27               	infsnz	atoi@s,f,c
  3344  001FA8  2A28               	incf	atoi@s+1,f,c
  3345  001FAA                     l5098:
  3346  001FAA  C027  FFD9         	movff	atoi@s,fsr2l
  3347  001FAE  C028  FFDA         	movff	atoi@s+1,fsr2h
  3348  001FB2  50DF               	movf	indf2,w,c
  3349  001FB4  EC7F  F014         	call	_isdigit
  3350  001FB8  B0D8               	btfsc	status,0,c
  3351  001FBA  D7DA               	goto	l5094
  3352  001FBC  502B               	movf	atoi@sign,w,c
  3353  001FBE  B4D8               	btfsc	status,2,c
  3354  001FC0  D00D               	goto	l980
  3355  001FC2  C02C  F029         	movff	atoi@a,??_atoi
  3356  001FC6  C02D  F02A         	movff	atoi@a+1,??_atoi+1
  3357  001FCA  1E29               	comf	??_atoi,f,c
  3358  001FCC  1E2A               	comf	??_atoi+1,f,c
  3359  001FCE  4A29               	infsnz	??_atoi,f,c
  3360  001FD0  2A2A               	incf	??_atoi+1,f,c
  3361  001FD2  C029  F027         	movff	??_atoi,?_atoi
  3362  001FD6  C02A  F028         	movff	??_atoi+1,?_atoi+1
  3363  001FDA  0012               	return	
  3364  001FDC                     l980:
  3365  001FDC  C02C  F027         	movff	atoi@a,?_atoi
  3366  001FE0  C02D  F028         	movff	atoi@a+1,?_atoi+1
  3367  001FE4  0012               	return	
  3368  001FE6                     __end_of_atoi:
  3369                           	opt stack 0
  3370                           tblptru	equ	0xFF8
  3371                           tblptrh	equ	0xFF7
  3372                           tblptrl	equ	0xFF6
  3373                           tablat	equ	0xFF5
  3374                           prodh	equ	0xFF4
  3375                           prodl	equ	0xFF3
  3376                           postinc0	equ	0xFEE
  3377                           wreg	equ	0xFE8
  3378                           postinc1	equ	0xFE6
  3379                           postdec1	equ	0xFE5
  3380                           fsr1l	equ	0xFE1
  3381                           indf2	equ	0xFDF
  3382                           postinc2	equ	0xFDE
  3383                           postdec2	equ	0xFDD
  3384                           fsr2h	equ	0xFDA
  3385                           fsr2l	equ	0xFD9
  3386                           status	equ	0xFD8
  3387                           
  3388 ;; *************** function _isdigit *****************
  3389 ;; Defined at:
  3390 ;;		line 8 in file "C:\Program Files (x86)\Microchip\xc8\v1.30\sources\common\isdigit.c"
  3391 ;; Parameters:    Size  Location     Type
  3392 ;;  c               1    wreg     unsigned char 
  3393 ;; Auto vars:     Size  Location     Type
  3394 ;;  c               1   23[COMRAM] unsigned char 
  3395 ;; Return value:  Size  Location     Type
  3396 ;;		None               void
  3397 ;; Registers used:
  3398 ;;		wreg, status,2, status,0
  3399 ;; Tracked objects:
  3400 ;;		On entry : 0/0
  3401 ;;		On exit  : 0/0
  3402 ;;		Unchanged: 0/0
  3403 ;; Data sizes:     COMRAM   BANK0   BANK1   BANK2   BANK3   BANK4   BANK5
  3404 ;;      Params:         0       0       0       0       0       0       0
  3405 ;;      Locals:         2       0       0       0       0       0       0
  3406 ;;      Temps:          1       0       0       0       0       0       0
  3407 ;;      Totals:         3       0       0       0       0       0       0
  3408 ;;Total ram usage:        3 bytes
  3409 ;; Hardware stack levels used:    1
  3410 ;; Hardware stack levels required when called:    3
  3411 ;; This function calls:
  3412 ;;		Nothing
  3413 ;; This function is called by:
  3414 ;;		_atoi
  3415 ;; This function uses a non-reentrant model
  3416 ;;
  3417                           
  3418                           	psect	text11
  3419  0028FE                     __ptext11:
  3420                           	opt stack 0
  3421  0028FE                     _isdigit:
  3422                           	opt stack 26
  3423                           
  3424                           ;incstack = 0
  3425                           ;isdigit@c stored from wreg
  3426  0028FE  CFE8 F018          	movff	wreg,isdigit@c
  3427  002902  6E16               	movwf	??_isdigit& (0+255),c
  3428  002904  0E00               	movlw	0
  3429  002906  6E17               	movwf	_isdigit$3035,c
  3430  002908  5016               	movf	??_isdigit& (0+255),w,c
  3431  00290A  0E3A               	movlw	58
  3432  00290C  5C18               	subwf	isdigit@c,w,c
  3433  00290E  B0D8               	btfsc	status,0,c
  3434  002910  D007               	goto	l5562
  3435  002912  0E2F               	movlw	47
  3436  002914  6418               	cpfsgt	isdigit@c,c
  3437  002916  D004               	goto	l5562
  3438  002918  6E16               	movwf	??_isdigit& (0+255),c
  3439  00291A  0E01               	movlw	1
  3440  00291C  6E17               	movwf	_isdigit$3035,c
  3441  00291E  5016               	movf	??_isdigit& (0+255),w,c
  3442  002920                     l5562:
  3443  002920  C017  F016         	movff	_isdigit$3035,??_isdigit
  3444  002924  3016               	rrcf	??_isdigit,w,c
  3445  002926  0012               	return	
  3446  002928                     __end_of_isdigit:
  3447                           	opt stack 0
  3448                           tblptru	equ	0xFF8
  3449                           tblptrh	equ	0xFF7
  3450                           tblptrl	equ	0xFF6
  3451                           tablat	equ	0xFF5
  3452                           prodh	equ	0xFF4
  3453                           prodl	equ	0xFF3
  3454                           postinc0	equ	0xFEE
  3455                           wreg	equ	0xFE8
  3456                           postinc1	equ	0xFE6
  3457                           postdec1	equ	0xFE5
  3458                           fsr1l	equ	0xFE1
  3459                           indf2	equ	0xFDF
  3460                           postinc2	equ	0xFDE
  3461                           postdec2	equ	0xFDD
  3462                           fsr2h	equ	0xFDA
  3463                           fsr2l	equ	0xFD9
  3464                           status	equ	0xFD8
  3465                           
  3466 ;; *************** function ___awmod *****************
  3467 ;; Defined at:
  3468 ;;		line 8 in file "C:\Program Files (x86)\Microchip\xc8\v1.30\sources\common\awmod.c"
  3469 ;; Parameters:    Size  Location     Type
  3470 ;;  dividend        2   21[COMRAM] int 
  3471 ;;  divisor         2   23[COMRAM] int 
  3472 ;; Auto vars:     Size  Location     Type
  3473 ;;  sign            1   27[COMRAM] unsigned char 
  3474 ;;  counter         1   26[COMRAM] unsigned char 
  3475 ;; Return value:  Size  Location     Type
  3476 ;;                  2   21[COMRAM] int 
  3477 ;; Registers used:
  3478 ;;		wreg, status,2, status,0, prodl
  3479 ;; Tracked objects:
  3480 ;;		On entry : 0/0
  3481 ;;		On exit  : 0/0
  3482 ;;		Unchanged: 0/0
  3483 ;; Data sizes:     COMRAM   BANK0   BANK1   BANK2   BANK3   BANK4   BANK5
  3484 ;;      Params:         4       0       0       0       0       0       0
  3485 ;;      Locals:         2       0       0       0       0       0       0
  3486 ;;      Temps:          1       0       0       0       0       0       0
  3487 ;;      Totals:         7       0       0       0       0       0       0
  3488 ;;Total ram usage:        7 bytes
  3489 ;; Hardware stack levels used:    1
  3490 ;; Hardware stack levels required when called:    3
  3491 ;; This function calls:
  3492 ;;		Nothing
  3493 ;; This function is called by:
  3494 ;;		_main
  3495 ;; This function uses a non-reentrant model
  3496 ;;
  3497                           
  3498                           	psect	text12
  3499  0021FA                     __ptext12:
  3500                           	opt stack 0
  3501  0021FA                     ___awmod:
  3502                           	opt stack 27
  3503                           
  3504                           ;incstack = 0
  3505  0021FA  6E1A               	movwf	??___awmod& (0+255),c
  3506  0021FC  0E00               	movlw	0
  3507  0021FE  6E1C               	movwf	___awmod@sign,c
  3508  002200  501A               	movf	??___awmod& (0+255),w,c
  3509  002202  5017               	movf	___awmod@dividend+1,w,c
  3510  002204  0A80               	xorlw	128
  3511  002206  6EF3               	movwf	prodl,c
  3512  002208  0E80               	movlw	128
  3513  00220A  5CF3               	subwf	prodl,w,c
  3514  00220C  0E00               	movlw	0
  3515  00220E  B4D8               	btfsc	status,2,c
  3516  002210  5C16               	subwf	___awmod@dividend,w,c
  3517  002212  B0D8               	btfsc	status,0,c
  3518  002214  D008               	goto	l5574
  3519  002216  6C16               	negf	___awmod@dividend,c
  3520  002218  1E17               	comf	___awmod@dividend+1,f,c
  3521  00221A  B0D8               	btfsc	status,0,c
  3522  00221C  2A17               	incf	___awmod@dividend+1,f,c
  3523  00221E  6E1A               	movwf	??___awmod& (0+255),c
  3524  002220  0E01               	movlw	1
  3525  002222  6E1C               	movwf	___awmod@sign,c
  3526  002224  501A               	movf	??___awmod& (0+255),w,c
  3527  002226                     l5574:
  3528  002226  5019               	movf	___awmod@divisor+1,w,c
  3529  002228  0A80               	xorlw	128
  3530  00222A  6EF3               	movwf	prodl,c
  3531  00222C  0E80               	movlw	128
  3532  00222E  5CF3               	subwf	prodl,w,c
  3533  002230  0E00               	movlw	0
  3534  002232  B4D8               	btfsc	status,2,c
  3535  002234  5C18               	subwf	___awmod@divisor,w,c
  3536  002236  B0D8               	btfsc	status,0,c
  3537  002238  D004               	goto	l5578
  3538  00223A  6C18               	negf	___awmod@divisor,c
  3539  00223C  1E19               	comf	___awmod@divisor+1,f,c
  3540  00223E  B0D8               	btfsc	status,0,c
  3541  002240  2A19               	incf	___awmod@divisor+1,f,c
  3542  002242                     l5578:
  3543  002242  5019               	movf	___awmod@divisor+1,w,c
  3544  002244  1018               	iorwf	___awmod@divisor,w,c
  3545  002246  B4D8               	btfsc	status,2,c
  3546  002248  D01A               	goto	l5594
  3547  00224A  6E1A               	movwf	??___awmod& (0+255),c
  3548  00224C  0E01               	movlw	1
  3549  00224E  6E1B               	movwf	___awmod@counter,c
  3550  002250  501A               	movf	??___awmod& (0+255),w,c
  3551  002252  D004               	goto	l5584
  3552  002254                     l5582:
  3553  002254  90D8               	bcf	status,0,c
  3554  002256  3618               	rlcf	___awmod@divisor,f,c
  3555  002258  3619               	rlcf	___awmod@divisor+1,f,c
  3556  00225A  2A1B               	incf	___awmod@counter,f,c
  3557  00225C                     l5584:
  3558  00225C  AE19               	btfss	___awmod@divisor+1,7,c
  3559  00225E  D7FA               	goto	l5582
  3560  002260                     l5586:
  3561  002260  5018               	movf	___awmod@divisor,w,c
  3562  002262  5C16               	subwf	___awmod@dividend,w,c
  3563  002264  5019               	movf	___awmod@divisor+1,w,c
  3564  002266  5817               	subwfb	___awmod@dividend+1,w,c
  3565  002268  A0D8               	btfss	status,0,c
  3566  00226A  D004               	goto	l5590
  3567  00226C  5018               	movf	___awmod@divisor,w,c
  3568  00226E  5E16               	subwf	___awmod@dividend,f,c
  3569  002270  5019               	movf	___awmod@divisor+1,w,c
  3570  002272  5A17               	subwfb	___awmod@dividend+1,f,c
  3571  002274                     l5590:
  3572  002274  90D8               	bcf	status,0,c
  3573  002276  3219               	rrcf	___awmod@divisor+1,f,c
  3574  002278  3218               	rrcf	___awmod@divisor,f,c
  3575  00227A  2E1B               	decfsz	___awmod@counter,f,c
  3576  00227C  D7F1               	goto	l5586
  3577  00227E                     l5594:
  3578  00227E  501C               	movf	___awmod@sign,w,c
  3579  002280  B4D8               	btfsc	status,2,c
  3580  002282  D004               	goto	l5598
  3581  002284  6C16               	negf	___awmod@dividend,c
  3582  002286  1E17               	comf	___awmod@dividend+1,f,c
  3583  002288  B0D8               	btfsc	status,0,c
  3584  00228A  2A17               	incf	___awmod@dividend+1,f,c
  3585  00228C                     l5598:
  3586  00228C  C016  F016         	movff	___awmod@dividend,?___awmod
  3587  002290  C017  F017         	movff	___awmod@dividend+1,?___awmod+1
  3588  002294  0012               	return	
  3589  002296                     __end_of___awmod:
  3590                           	opt stack 0
  3591                           tblptru	equ	0xFF8
  3592                           tblptrh	equ	0xFF7
  3593                           tblptrl	equ	0xFF6
  3594                           tablat	equ	0xFF5
  3595                           prodh	equ	0xFF4
  3596                           prodl	equ	0xFF3
  3597                           postinc0	equ	0xFEE
  3598                           wreg	equ	0xFE8
  3599                           postinc1	equ	0xFE6
  3600                           postdec1	equ	0xFE5
  3601                           fsr1l	equ	0xFE1
  3602                           indf2	equ	0xFDF
  3603                           postinc2	equ	0xFDE
  3604                           postdec2	equ	0xFDD
  3605                           fsr2h	equ	0xFDA
  3606                           fsr2l	equ	0xFD9
  3607                           status	equ	0xFD8
  3608                           
  3609 ;; *************** function _Tomcat_Temp_Ex *****************
  3610 ;; Defined at:
  3611 ;;		line 236 in file "Tomcat_V_driver.c"
  3612 ;; Parameters:    Size  Location     Type
  3613 ;;		None
  3614 ;; Auto vars:     Size  Location     Type
  3615 ;;  temp            3   76[BANK0 ] float 
  3616 ;; Return value:  Size  Location     Type
  3617 ;;                  2   67[BANK0 ] int 
  3618 ;; Registers used:
  3619 ;;		wreg, fsr2l, fsr2h, status,2, status,0, tblptrl, tblptrh, tblptru, prodl, prodh, cstack
  3620 ;; Tracked objects:
  3621 ;;		On entry : 0/0
  3622 ;;		On exit  : 0/0
  3623 ;;		Unchanged: 0/0
  3624 ;; Data sizes:     COMRAM   BANK0   BANK1   BANK2   BANK3   BANK4   BANK5
  3625 ;;      Params:         0       2       0       0       0       0       0
  3626 ;;      Locals:         0       6       0       0       0       0       0
  3627 ;;      Temps:          0       4       0       0       0       0       0
  3628 ;;      Totals:         0      12       0       0       0       0       0
  3629 ;;Total ram usage:       12 bytes
  3630 ;; Hardware stack levels used:    1
  3631 ;; Hardware stack levels required when called:    7
  3632 ;; This function calls:
  3633 ;;		___ftadd
  3634 ;;		___ftdiv
  3635 ;;		___ftmul
  3636 ;;		___ftneg
  3637 ;;		___fttol
  3638 ;;		___lwtoft
  3639 ;;		_analogRead
  3640 ;;		_log
  3641 ;; This function is called by:
  3642 ;;		_main
  3643 ;; This function uses a non-reentrant model
  3644 ;;
  3645                           
  3646                           	psect	text13
  3647  001504                     __ptext13:
  3648                           	opt stack 0
  3649  001504                     _Tomcat_Temp_Ex:
  3650                           	opt stack 23
  3651                           
  3652                           ;Tomcat_V_driver.c: 239: float temp = 0.0;
  3653                           
  3654                           ;incstack = 0
  3655  001504  0E00               	movlw	0
  3656  001506  0100               	movlb	0	; () banked
  3657  001508  0100               	movlb	0	; () banked
  3658  00150A  6FAC               	movwf	Tomcat_Temp_Ex@temp& (0+255),b
  3659  00150C  0E00               	movlw	0
  3660  00150E  0100               	movlb	0	; () banked
  3661  001510  0100               	movlb	0	; () banked
  3662  001512  6FAD               	movwf	(Tomcat_Temp_Ex@temp+1)& (0+255),b
  3663  001514  0E00               	movlw	0
  3664  001516  0100               	movlb	0	; () banked
  3665  001518  0100               	movlb	0	; () banked
  3666  00151A  6FAE               	movwf	(Tomcat_Temp_Ex@temp+2)& (0+255),b
  3667                           
  3668                           ; BSR set to: 0
  3669                           ;Tomcat_V_driver.c: 240: temp = analogRead(22);
  3670  00151C  0E16               	movlw	22
  3671  00151E  EC09  F014         	call	_analogRead
  3672  001522  C016  F01F         	movff	?_analogRead,___lwtoft@c
  3673  001526  C017  F020         	movff	?_analogRead+1,___lwtoft@c+1
  3674  00152A  EC69  F014         	call	___lwtoft	;wreg free
  3675  00152E  C01F  F0AC         	movff	?___lwtoft,Tomcat_Temp_Ex@temp
  3676  001532  C020  F0AD         	movff	?___lwtoft+1,Tomcat_Temp_Ex@temp+1
  3677  001536  C021  F0AE         	movff	?___lwtoft+2,Tomcat_Temp_Ex@temp+2
  3678                           
  3679                           ;Tomcat_V_driver.c: 241: temp = (temp / 1024.0) * 5.0;
  3680  00153A  0E00               	movlw	0
  3681  00153C  0100               	movlb	0	; () banked
  3682  00153E  0100               	movlb	0	; () banked
  3683  001540  6F63               	movwf	___ftdiv@f2& (0+255),b
  3684  001542  0E80               	movlw	128
  3685  001544  0100               	movlb	0	; () banked
  3686  001546  0100               	movlb	0	; () banked
  3687  001548  6F64               	movwf	(___ftdiv@f2+1)& (0+255),b
  3688  00154A  0E44               	movlw	68
  3689  00154C  0100               	movlb	0	; () banked
  3690  00154E  0100               	movlb	0	; () banked
  3691  001550  6F65               	movwf	(___ftdiv@f2+2)& (0+255),b
  3692  001552  C0AC  F060         	movff	Tomcat_Temp_Ex@temp,___ftdiv@f1
  3693  001556  C0AD  F061         	movff	Tomcat_Temp_Ex@temp+1,___ftdiv@f1+1
  3694  00155A  C0AE  F062         	movff	Tomcat_Temp_Ex@temp+2,___ftdiv@f1+2
  3695  00155E  ECE3  F00C         	call	___ftdiv	;wreg free
  3696  001562  C060  F066         	movff	?___ftdiv,___ftmul@f1
  3697  001566  C061  F067         	movff	?___ftdiv+1,___ftmul@f1+1
  3698  00156A  C062  F068         	movff	?___ftdiv+2,___ftmul@f1+2
  3699  00156E  0E00               	movlw	0
  3700  001570  0100               	movlb	0	; () banked
  3701  001572  0100               	movlb	0	; () banked
  3702  001574  6F69               	movwf	___ftmul@f2& (0+255),b
  3703  001576  0EA0               	movlw	160
  3704  001578  0100               	movlb	0	; () banked
  3705  00157A  0100               	movlb	0	; () banked
  3706  00157C  6F6A               	movwf	(___ftmul@f2+1)& (0+255),b
  3707  00157E  0E40               	movlw	64
  3708  001580  0100               	movlb	0	; () banked
  3709  001582  0100               	movlb	0	; () banked
  3710  001584  6F6B               	movwf	(___ftmul@f2+2)& (0+255),b
  3711  001586  ECC2  F008         	call	___ftmul	;wreg free
  3712  00158A  C066  F0AC         	movff	?___ftmul,Tomcat_Temp_Ex@temp
  3713  00158E  C067  F0AD         	movff	?___ftmul+1,Tomcat_Temp_Ex@temp+1
  3714  001592  C068  F0AE         	movff	?___ftmul+2,Tomcat_Temp_Ex@temp+2
  3715                           
  3716                           ;Tomcat_V_driver.c: 242: temp = (10000 * 5.0 / temp) - 10000;
  3717  001596  C0AC  F063         	movff	Tomcat_Temp_Ex@temp,___ftdiv@f2
  3718  00159A  C0AD  F064         	movff	Tomcat_Temp_Ex@temp+1,___ftdiv@f2+1
  3719  00159E  C0AE  F065         	movff	Tomcat_Temp_Ex@temp+2,___ftdiv@f2+2
  3720  0015A2  0E50               	movlw	80
  3721  0015A4  0100               	movlb	0	; () banked
  3722  0015A6  0100               	movlb	0	; () banked
  3723  0015A8  6F60               	movwf	___ftdiv@f1& (0+255),b
  3724  0015AA  0E43               	movlw	67
  3725  0015AC  0100               	movlb	0	; () banked
  3726  0015AE  0100               	movlb	0	; () banked
  3727  0015B0  6F61               	movwf	(___ftdiv@f1+1)& (0+255),b
  3728  0015B2  0E47               	movlw	71
  3729  0015B4  0100               	movlb	0	; () banked
  3730  0015B6  0100               	movlb	0	; () banked
  3731  0015B8  6F62               	movwf	(___ftdiv@f1+2)& (0+255),b
  3732  0015BA  ECE3  F00C         	call	___ftdiv	;wreg free
  3733  0015BE  C060  F07B         	movff	?___ftdiv,___ftadd@f1
  3734  0015C2  C061  F07C         	movff	?___ftdiv+1,___ftadd@f1+1
  3735  0015C6  C062  F07D         	movff	?___ftdiv+2,___ftadd@f1+2
  3736  0015CA  0E40               	movlw	64
  3737  0015CC  0100               	movlb	0	; () banked
  3738  0015CE  0100               	movlb	0	; () banked
  3739  0015D0  6F7E               	movwf	___ftadd@f2& (0+255),b
  3740  0015D2  0E1C               	movlw	28
  3741  0015D4  0100               	movlb	0	; () banked
  3742  0015D6  0100               	movlb	0	; () banked
  3743  0015D8  6F7F               	movwf	(___ftadd@f2+1)& (0+255),b
  3744  0015DA  0EC6               	movlw	198
  3745  0015DC  0100               	movlb	0	; () banked
  3746  0015DE  0100               	movlb	0	; () banked
  3747  0015E0  6F80               	movwf	(___ftadd@f2+2)& (0+255),b
  3748  0015E2  EC0C  F006         	call	___ftadd	;wreg free
  3749  0015E6  C07B  F0AC         	movff	?___ftadd,Tomcat_Temp_Ex@temp
  3750  0015EA  C07C  F0AD         	movff	?___ftadd+1,Tomcat_Temp_Ex@temp+1
  3751  0015EE  C07D  F0AE         	movff	?___ftadd+2,Tomcat_Temp_Ex@temp+2
  3752                           
  3753                           ;Tomcat_V_driver.c: 243: temp = 229.23 - 22.009493 * log(temp);
  3754  0015F2  C0AC  F099         	movff	Tomcat_Temp_Ex@temp,log@x
  3755  0015F6  C0AD  F09A         	movff	Tomcat_Temp_Ex@temp+1,log@x+1
  3756  0015FA  C0AE  F09B         	movff	Tomcat_Temp_Ex@temp+2,log@x+2
  3757  0015FE  EC52  F00B         	call	_log	;wreg free
  3758  001602  C099  F0A9         	movff	?_log,_Tomcat_Temp_Ex$3487
  3759  001606  C09A  F0AA         	movff	?_log+1,_Tomcat_Temp_Ex$3487+1
  3760  00160A  C09B  F0AB         	movff	?_log+2,_Tomcat_Temp_Ex$3487+2
  3761                           
  3762                           ;Tomcat_V_driver.c: 243: temp = 229.23 - 22.009493 * log(temp);
  3763  00160E  0E13               	movlw	19
  3764  001610  0100               	movlb	0	; () banked
  3765  001612  0100               	movlb	0	; () banked
  3766  001614  6F69               	movwf	___ftmul@f2& (0+255),b
  3767  001616  0EB0               	movlw	176
  3768  001618  0100               	movlb	0	; () banked
  3769  00161A  0100               	movlb	0	; () banked
  3770  00161C  6F6A               	movwf	(___ftmul@f2+1)& (0+255),b
  3771  00161E  0E41               	movlw	65
  3772  001620  0100               	movlb	0	; () banked
  3773  001622  0100               	movlb	0	; () banked
  3774  001624  6F6B               	movwf	(___ftmul@f2+2)& (0+255),b
  3775  001626  C0A9  F066         	movff	_Tomcat_Temp_Ex$3487,___ftmul@f1
  3776  00162A  C0AA  F067         	movff	_Tomcat_Temp_Ex$3487+1,___ftmul@f1+1
  3777  00162E  C0AB  F068         	movff	_Tomcat_Temp_Ex$3487+2,___ftmul@f1+2
  3778  001632  ECC2  F008         	call	___ftmul	;wreg free
  3779  001636  C066  F0A0         	movff	?___ftmul,___ftneg@f1
  3780  00163A  C067  F0A1         	movff	?___ftmul+1,___ftneg@f1+1
  3781  00163E  C068  F0A2         	movff	?___ftmul+2,___ftneg@f1+2
  3782  001642  ECB2  F013         	call	___ftneg	;wreg free
  3783  001646  C0A0  F07B         	movff	?___ftneg,___ftadd@f1
  3784  00164A  C0A1  F07C         	movff	?___ftneg+1,___ftadd@f1+1
  3785  00164E  C0A2  F07D         	movff	?___ftneg+2,___ftadd@f1+2
  3786  001652  0E3B               	movlw	59
  3787  001654  0100               	movlb	0	; () banked
  3788  001656  0100               	movlb	0	; () banked
  3789  001658  6F7E               	movwf	___ftadd@f2& (0+255),b
  3790  00165A  0E65               	movlw	101
  3791  00165C  0100               	movlb	0	; () banked
  3792  00165E  0100               	movlb	0	; () banked
  3793  001660  6F7F               	movwf	(___ftadd@f2+1)& (0+255),b
  3794  001662  0E43               	movlw	67
  3795  001664  0100               	movlb	0	; () banked
  3796  001666  0100               	movlb	0	; () banked
  3797  001668  6F80               	movwf	(___ftadd@f2+2)& (0+255),b
  3798  00166A  EC0C  F006         	call	___ftadd	;wreg free
  3799  00166E  C07B  F0AC         	movff	?___ftadd,Tomcat_Temp_Ex@temp
  3800  001672  C07C  F0AD         	movff	?___ftadd+1,Tomcat_Temp_Ex@temp+1
  3801  001676  C07D  F0AE         	movff	?___ftadd+2,Tomcat_Temp_Ex@temp+2
  3802                           
  3803                           ;Tomcat_V_driver.c: 244: return temp;
  3804  00167A  C0AC  F07B         	movff	Tomcat_Temp_Ex@temp,___fttol@f1
  3805  00167E  C0AD  F07C         	movff	Tomcat_Temp_Ex@temp+1,___fttol@f1+1
  3806  001682  C0AE  F07D         	movff	Tomcat_Temp_Ex@temp+2,___fttol@f1+2
  3807  001686  ECAE  F009         	call	___fttol	;wreg free
  3808  00168A  C07B  F0A5         	movff	?___fttol,??_Tomcat_Temp_Ex
  3809  00168E  C07C  F0A6         	movff	?___fttol+1,??_Tomcat_Temp_Ex+1
  3810  001692  C07D  F0A7         	movff	?___fttol+2,??_Tomcat_Temp_Ex+2
  3811  001696  C07E  F0A8         	movff	?___fttol+3,??_Tomcat_Temp_Ex+3
  3812  00169A  C0A5  F0A3         	movff	??_Tomcat_Temp_Ex,?_Tomcat_Temp_Ex
  3813  00169E  C0A6  F0A4         	movff	??_Tomcat_Temp_Ex+1,?_Tomcat_Temp_Ex+1
  3814  0016A2  0012               	return	
  3815  0016A4                     __end_of_Tomcat_Temp_Ex:
  3816                           	opt stack 0
  3817                           tblptru	equ	0xFF8
  3818                           tblptrh	equ	0xFF7
  3819                           tblptrl	equ	0xFF6
  3820                           tablat	equ	0xFF5
  3821                           prodh	equ	0xFF4
  3822                           prodl	equ	0xFF3
  3823                           postinc0	equ	0xFEE
  3824                           wreg	equ	0xFE8
  3825                           postinc1	equ	0xFE6
  3826                           postdec1	equ	0xFE5
  3827                           fsr1l	equ	0xFE1
  3828                           indf2	equ	0xFDF
  3829                           postinc2	equ	0xFDE
  3830                           postdec2	equ	0xFDD
  3831                           fsr2h	equ	0xFDA
  3832                           fsr2l	equ	0xFD9
  3833                           status	equ	0xFD8
  3834                           
  3835 ;; *************** function _log *****************
  3836 ;; Defined at:
  3837 ;;		line 5 in file "C:\Program Files (x86)\Microchip\xc8\v1.30\sources\common\log.c"
  3838 ;; Parameters:    Size  Location     Type
  3839 ;;  x               3   57[BANK0 ] int 
  3840 ;; Auto vars:     Size  Location     Type
  3841 ;;  exponent        2   62[BANK0 ] int 
  3842 ;; Return value:  Size  Location     Type
  3843 ;;                  3   57[BANK0 ] int 
  3844 ;; Registers used:
  3845 ;;		wreg, fsr2l, fsr2h, status,2, status,0, tblptrl, tblptrh, tblptru, prodl, prodh, cstack
  3846 ;; Tracked objects:
  3847 ;;		On entry : 0/0
  3848 ;;		On exit  : 0/0
  3849 ;;		Unchanged: 0/0
  3850 ;; Data sizes:     COMRAM   BANK0   BANK1   BANK2   BANK3   BANK4   BANK5
  3851 ;;      Params:         0       3       0       0       0       0       0
  3852 ;;      Locals:         0       4       0       0       0       0       0
  3853 ;;      Temps:          0       0       0       0       0       0       0
  3854 ;;      Totals:         0       7       0       0       0       0       0
  3855 ;;Total ram usage:        7 bytes
  3856 ;; Hardware stack levels used:    1
  3857 ;; Hardware stack levels required when called:    6
  3858 ;; This function calls:
  3859 ;;		___awtoft
  3860 ;;		___ftadd
  3861 ;;		___ftmul
  3862 ;;		_eval_poly
  3863 ;;		_frexp
  3864 ;; This function is called by:
  3865 ;;		_Tomcat_Temp_Ex
  3866 ;; This function uses a non-reentrant model
  3867 ;;
  3868                           
  3869                           	psect	text14
  3870  0016A4                     __ptext14:
  3871                           	opt stack 0
  3872  0016A4                     _log:
  3873                           	opt stack 23
  3874                           
  3875                           ;incstack = 0
  3876  0016A4  0100               	movlb	0	; () banked
  3877  0016A6  0100               	movlb	0	; () banked
  3878  0016A8  519B               	movf	(log@x+2)& (0+255),w,b
  3879  0016AA  0A80               	xorlw	128
  3880  0016AC  0F80               	addlw	128
  3881  0016AE  E107               	bnz	u7885
  3882  0016B0  0E00               	movlw	0
  3883  0016B2  0100               	movlb	0	; () banked
  3884  0016B4  5D9A               	subwf	(log@x+1)& (0+255),w,b
  3885  0016B6  E103               	bnz	u7885
  3886  0016B8  0E00               	movlw	0
  3887  0016BA  0100               	movlb	0	; () banked
  3888  0016BC  5D99               	subwf	log@x& (0+255),w,b
  3889  0016BE                     u7885:
  3890  0016BE  B0D8               	btfsc	status,0,c
  3891  0016C0  D014               	goto	l8516
  3892                           
  3893                           ; BSR set to: 0
  3894  0016C2  0E00               	movlw	0
  3895  0016C4  0100               	movlb	0	; () banked
  3896  0016C6  0100               	movlb	0	; () banked
  3897  0016C8  6FB8               	movwf	(_errno+1)& (0+255),b
  3898  0016CA  0E21               	movlw	33
  3899  0016CC  0100               	movlb	0	; () banked
  3900  0016CE  6FB7               	movwf	_errno& (0+255),b
  3901  0016D0  0E00               	movlw	0
  3902  0016D2  0100               	movlb	0	; () banked
  3903  0016D4  0100               	movlb	0	; () banked
  3904  0016D6  6F99               	movwf	?_log& (0+255),b
  3905  0016D8  0E00               	movlw	0
  3906  0016DA  0100               	movlb	0	; () banked
  3907  0016DC  0100               	movlb	0	; () banked
  3908  0016DE  6F9A               	movwf	(?_log+1)& (0+255),b
  3909  0016E0  0E00               	movlw	0
  3910  0016E2  0100               	movlb	0	; () banked
  3911  0016E4  0100               	movlb	0	; () banked
  3912  0016E6  6F9B               	movwf	(?_log+2)& (0+255),b
  3913  0016E8  0012               	return	
  3914  0016EA                     l8516:
  3915                           
  3916                           ; BSR set to: 0
  3917  0016EA  0E7F               	movlw	127
  3918  0016EC  0100               	movlb	0	; () banked
  3919  0016EE  0100               	movlb	0	; () banked
  3920  0016F0  159B               	andwf	(log@x+2)& (0+255),w,b
  3921  0016F2  0100               	movlb	0	; () banked
  3922  0016F4  119A               	iorwf	(log@x+1)& (0+255),w,b
  3923  0016F6  0100               	movlb	0	; () banked
  3924  0016F8  1199               	iorwf	log@x& (0+255),w,b
  3925  0016FA  A4D8               	btfss	status,2,c
  3926  0016FC  D014               	goto	l8522
  3927                           
  3928                           ; BSR set to: 0
  3929  0016FE  0E00               	movlw	0
  3930  001700  0100               	movlb	0	; () banked
  3931  001702  0100               	movlb	0	; () banked
  3932  001704  6FB8               	movwf	(_errno+1)& (0+255),b
  3933  001706  0E22               	movlw	34
  3934  001708  0100               	movlb	0	; () banked
  3935  00170A  6FB7               	movwf	_errno& (0+255),b
  3936  00170C  0E00               	movlw	0
  3937  00170E  0100               	movlb	0	; () banked
  3938  001710  0100               	movlb	0	; () banked
  3939  001712  6F99               	movwf	?_log& (0+255),b
  3940  001714  0E00               	movlw	0
  3941  001716  0100               	movlb	0	; () banked
  3942  001718  0100               	movlb	0	; () banked
  3943  00171A  6F9A               	movwf	(?_log+1)& (0+255),b
  3944  00171C  0E00               	movlw	0
  3945  00171E  0100               	movlb	0	; () banked
  3946  001720  0100               	movlb	0	; () banked
  3947  001722  6F9B               	movwf	(?_log+2)& (0+255),b
  3948  001724  0012               	return	
  3949  001726                     l8522:
  3950                           
  3951                           ; BSR set to: 0
  3952  001726  0E00               	movlw	0
  3953  001728  0100               	movlb	0	; () banked
  3954  00172A  0100               	movlb	0	; () banked
  3955  00172C  6F69               	movwf	___ftmul@f2& (0+255),b
  3956  00172E  0E00               	movlw	0
  3957  001730  0100               	movlb	0	; () banked
  3958  001732  0100               	movlb	0	; () banked
  3959  001734  6F6A               	movwf	(___ftmul@f2+1)& (0+255),b
  3960  001736  0E40               	movlw	64
  3961  001738  0100               	movlb	0	; () banked
  3962  00173A  0100               	movlb	0	; () banked
  3963  00173C  6F6B               	movwf	(___ftmul@f2+2)& (0+255),b
  3964  00173E  0100               	movlb	0	; () banked
  3965  001740  0E00               	movlw	high log@exponent
  3966  001742  6E1A               	movwf	frexp@eptr+1,c
  3967  001744  0100               	movlb	0	; () banked
  3968  001746  0E9E               	movlw	low log@exponent
  3969  001748  6E19               	movwf	frexp@eptr,c
  3970  00174A  C099  F016         	movff	log@x,frexp@value
  3971  00174E  C09A  F017         	movff	log@x+1,frexp@value+1
  3972  001752  C09B  F018         	movff	log@x+2,frexp@value+2
  3973  001756  EC4B  F011         	call	_frexp	;wreg free
  3974  00175A  C016  F066         	movff	?_frexp,___ftmul@f1
  3975  00175E  C017  F067         	movff	?_frexp+1,___ftmul@f1+1
  3976  001762  C018  F068         	movff	?_frexp+2,___ftmul@f1+2
  3977  001766  ECC2  F008         	call	___ftmul	;wreg free
  3978  00176A  C066  F07B         	movff	?___ftmul,___ftadd@f1
  3979  00176E  C067  F07C         	movff	?___ftmul+1,___ftadd@f1+1
  3980  001772  C068  F07D         	movff	?___ftmul+2,___ftadd@f1+2
  3981  001776  0E00               	movlw	0
  3982  001778  0100               	movlb	0	; () banked
  3983  00177A  0100               	movlb	0	; () banked
  3984  00177C  6F7E               	movwf	___ftadd@f2& (0+255),b
  3985  00177E  0E80               	movlw	128
  3986  001780  0100               	movlb	0	; () banked
  3987  001782  0100               	movlb	0	; () banked
  3988  001784  6F7F               	movwf	(___ftadd@f2+1)& (0+255),b
  3989  001786  0EBF               	movlw	191
  3990  001788  0100               	movlb	0	; () banked
  3991  00178A  0100               	movlb	0	; () banked
  3992  00178C  6F80               	movwf	(___ftadd@f2+2)& (0+255),b
  3993  00178E  EC0C  F006         	call	___ftadd	;wreg free
  3994  001792  C07B  F099         	movff	?___ftadd,log@x
  3995  001796  C07C  F09A         	movff	?___ftadd+1,log@x+1
  3996  00179A  C07D  F09B         	movff	?___ftadd+2,log@x+2
  3997  00179E  0100               	movlb	0	; () banked
  3998  0017A0  0100               	movlb	0	; () banked
  3999  0017A2  079E               	decf	log@exponent& (0+255),f,b
  4000  0017A4  A0D8               	btfss	status,0,c
  4001  0017A6  079F               	decf	(log@exponent+1)& (0+255),f,b
  4002                           
  4003                           ; BSR set to: 0
  4004  0017A8  C099  F08A         	movff	log@x,eval_poly@x
  4005  0017AC  C09A  F08B         	movff	log@x+1,eval_poly@x+1
  4006  0017B0  C09B  F08C         	movff	log@x+2,eval_poly@x+2
  4007  0017B4  0E06               	movlw	high log@coeff
  4008  0017B6  0100               	movlb	0	; () banked
  4009  0017B8  0100               	movlb	0	; () banked
  4010  0017BA  6F8E               	movwf	(eval_poly@d+1)& (0+255),b
  4011  0017BC  0E0D               	movlw	low log@coeff
  4012  0017BE  0100               	movlb	0	; () banked
  4013  0017C0  0100               	movlb	0	; () banked
  4014  0017C2  6F8D               	movwf	eval_poly@d& (0+255),b
  4015  0017C4  0E00               	movlw	0
  4016  0017C6  0100               	movlb	0	; () banked
  4017  0017C8  0100               	movlb	0	; () banked
  4018  0017CA  6F90               	movwf	(eval_poly@n+1)& (0+255),b
  4019  0017CC  0E08               	movlw	8
  4020  0017CE  0100               	movlb	0	; () banked
  4021  0017D0  6F8F               	movwf	eval_poly@n& (0+255),b
  4022  0017D2  EC9B  F00E         	call	_eval_poly	;wreg free
  4023  0017D6  C08A  F099         	movff	?_eval_poly,log@x
  4024  0017DA  C08B  F09A         	movff	?_eval_poly+1,log@x+1
  4025  0017DE  C08C  F09B         	movff	?_eval_poly+2,log@x+2
  4026  0017E2  0E72               	movlw	114
  4027  0017E4  0100               	movlb	0	; () banked
  4028  0017E6  0100               	movlb	0	; () banked
  4029  0017E8  6F69               	movwf	___ftmul@f2& (0+255),b
  4030  0017EA  0E31               	movlw	49
  4031  0017EC  0100               	movlb	0	; () banked
  4032  0017EE  0100               	movlb	0	; () banked
  4033  0017F0  6F6A               	movwf	(___ftmul@f2+1)& (0+255),b
  4034  0017F2  0E3F               	movlw	63
  4035  0017F4  0100               	movlb	0	; () banked
  4036  0017F6  0100               	movlb	0	; () banked
  4037  0017F8  6F6B               	movwf	(___ftmul@f2+2)& (0+255),b
  4038  0017FA  C09E  F01E         	movff	log@exponent,___awtoft@c
  4039  0017FE  C09F  F01F         	movff	log@exponent+1,___awtoft@c+1
  4040  001802  EC2E  F012         	call	___awtoft	;wreg free
  4041  001806  C01E  F066         	movff	?___awtoft,___ftmul@f1
  4042  00180A  C01F  F067         	movff	?___awtoft+1,___ftmul@f1+1
  4043  00180E  C020  F068         	movff	?___awtoft+2,___ftmul@f1+2
  4044  001812  ECC2  F008         	call	___ftmul	;wreg free
  4045  001816  C066  F07B         	movff	?___ftmul,___ftadd@f1
  4046  00181A  C067  F07C         	movff	?___ftmul+1,___ftadd@f1+1
  4047  00181E  C068  F07D         	movff	?___ftmul+2,___ftadd@f1+2
  4048  001822  C099  F07E         	movff	log@x,___ftadd@f2
  4049  001826  C09A  F07F         	movff	log@x+1,___ftadd@f2+1
  4050  00182A  C09B  F080         	movff	log@x+2,___ftadd@f2+2
  4051  00182E  EC0C  F006         	call	___ftadd	;wreg free
  4052  001832  C07B  F099         	movff	?___ftadd,?_log
  4053  001836  C07C  F09A         	movff	?___ftadd+1,?_log+1
  4054  00183A  C07D  F09B         	movff	?___ftadd+2,?_log+2
  4055  00183E  0012               	return	
  4056  001840                     __end_of_log:
  4057                           	opt stack 0
  4058                           tblptru	equ	0xFF8
  4059                           tblptrh	equ	0xFF7
  4060                           tblptrl	equ	0xFF6
  4061                           tablat	equ	0xFF5
  4062                           prodh	equ	0xFF4
  4063                           prodl	equ	0xFF3
  4064                           postinc0	equ	0xFEE
  4065                           wreg	equ	0xFE8
  4066                           postinc1	equ	0xFE6
  4067                           postdec1	equ	0xFE5
  4068                           fsr1l	equ	0xFE1
  4069                           indf2	equ	0xFDF
  4070                           postinc2	equ	0xFDE
  4071                           postdec2	equ	0xFDD
  4072                           fsr2h	equ	0xFDA
  4073                           fsr2l	equ	0xFD9
  4074                           status	equ	0xFD8
  4075                           
  4076 ;; *************** function _frexp *****************
  4077 ;; Defined at:
  4078 ;;		line 254 in file "C:\Program Files (x86)\Microchip\xc8\v1.30\sources\common\frexp.c"
  4079 ;; Parameters:    Size  Location     Type
  4080 ;;  value           3   21[COMRAM] int 
  4081 ;;  eptr            2   24[COMRAM] PTR int 
  4082 ;;		 -> log@exponent(2), 
  4083 ;; Auto vars:     Size  Location     Type
  4084 ;;		None
  4085 ;; Return value:  Size  Location     Type
  4086 ;;                  3   21[COMRAM] PTR int 
  4087 ;; Registers used:
  4088 ;;		wreg, fsr2l, fsr2h, status,2, status,0
  4089 ;; Tracked objects:
  4090 ;;		On entry : 0/0
  4091 ;;		On exit  : 0/0
  4092 ;;		Unchanged: 0/0
  4093 ;; Data sizes:     COMRAM   BANK0   BANK1   BANK2   BANK3   BANK4   BANK5
  4094 ;;      Params:         5       0       0       0       0       0       0
  4095 ;;      Locals:         0       0       0       0       0       0       0
  4096 ;;      Temps:          3       0       0       0       0       0       0
  4097 ;;      Totals:         8       0       0       0       0       0       0
  4098 ;;Total ram usage:        8 bytes
  4099 ;; Hardware stack levels used:    1
  4100 ;; Hardware stack levels required when called:    3
  4101 ;; This function calls:
  4102 ;;		Nothing
  4103 ;; This function is called by:
  4104 ;;		_log
  4105 ;; This function uses a non-reentrant model
  4106 ;;
  4107                           
  4108                           	psect	text15
  4109  002296                     __ptext15:
  4110                           	opt stack 0
  4111  002296                     _frexp:
  4112                           	opt stack 25
  4113                           
  4114                           ;incstack = 0
  4115  002296  0E7F               	movlw	127
  4116  002298  1418               	andwf	frexp@value+2,w,c
  4117  00229A  1017               	iorwf	frexp@value+1,w,c
  4118  00229C  1016               	iorwf	frexp@value,w,c
  4119  00229E  A4D8               	btfss	status,2,c
  4120  0022A0  D00F               	goto	l5690
  4121  0022A2  C019  FFD9         	movff	frexp@eptr,fsr2l
  4122  0022A6  C01A  FFDA         	movff	frexp@eptr+1,fsr2h
  4123  0022AA  0E00               	movlw	0
  4124  0022AC  6EDE               	movwf	postinc2,c
  4125  0022AE  0E00               	movlw	0
  4126  0022B0  6EDD               	movwf	postdec2,c
  4127  0022B2  0E00               	movlw	0
  4128  0022B4  6E16               	movwf	?_frexp,c
  4129  0022B6  0E00               	movlw	0
  4130  0022B8  6E17               	movwf	?_frexp+1,c
  4131  0022BA  0E00               	movlw	0
  4132  0022BC  6E18               	movwf	?_frexp+2,c
  4133  0022BE  0012               	return	
  4134  0022C0                     l5690:
  4135  0022C0  5018               	movf	frexp@value+2,w,c
  4136  0022C2  0B7F               	andlw	127
  4137  0022C4  6E1B               	movwf	??_frexp& (0+255),c
  4138  0022C6  90D8               	bcf	status,0,c
  4139  0022C8  341B               	rlcf	??_frexp,w,c
  4140  0022CA  6E1C               	movwf	(??_frexp+1)& (0+255),c
  4141  0022CC  6A1D               	clrf	(??_frexp+2)& (0+255),c
  4142  0022CE  361D               	rlcf	(??_frexp+2)& (0+255),f,c
  4143  0022D0  C019  FFD9         	movff	frexp@eptr,fsr2l
  4144  0022D4  C01A  FFDA         	movff	frexp@eptr+1,fsr2h
  4145  0022D8  C01C  FFDE         	movff	??_frexp+1,postinc2
  4146  0022DC  C01D  FFDD         	movff	??_frexp+2,postdec2
  4147  0022E0  AE17               	btfss	frexp@value+1,7,c
  4148  0022E2  D003               	goto	u4530
  4149  0022E4  6A1B               	clrf	??_frexp& (0+255),c
  4150  0022E6  2A1B               	incf	??_frexp& (0+255),f,c
  4151  0022E8  D001               	goto	u4538
  4152  0022EA                     u4530:
  4153  0022EA  6A1B               	clrf	??_frexp& (0+255),c
  4154  0022EC                     u4538:
  4155  0022EC  501B               	movf	??_frexp,w,c
  4156  0022EE  C019  FFD9         	movff	frexp@eptr,fsr2l
  4157  0022F2  C01A  FFDA         	movff	frexp@eptr+1,fsr2h
  4158  0022F6  12DE               	iorwf	postinc2,f,c
  4159  0022F8  0E00               	movlw	0
  4160  0022FA  12DD               	iorwf	postdec2,f,c
  4161  0022FC  C019  FFD9         	movff	frexp@eptr,fsr2l
  4162  002300  C01A  FFDA         	movff	frexp@eptr+1,fsr2h
  4163  002304  0E82               	movlw	130
  4164  002306  26DE               	addwf	postinc2,f,c
  4165  002308  0EFF               	movlw	255
  4166  00230A  22DD               	addwfc	postdec2,f,c
  4167  00230C  8018               	bsf	frexp@value+2,0,c
  4168  00230E  8218               	bsf	frexp@value+2,1,c
  4169  002310  8418               	bsf	frexp@value+2,2,c
  4170  002312  8618               	bsf	frexp@value+2,3,c
  4171  002314  8818               	bsf	frexp@value+2,4,c
  4172  002316  8A18               	bsf	frexp@value+2,5,c
  4173  002318  9C18               	bcf	frexp@value+2,6,c
  4174  00231A  9E17               	bcf	frexp@value+1,7,c
  4175  00231C  C016  F016         	movff	frexp@value,?_frexp
  4176  002320  C017  F017         	movff	frexp@value+1,?_frexp+1
  4177  002324  C018  F018         	movff	frexp@value+2,?_frexp+2
  4178  002328  0012               	return	
  4179  00232A                     __end_of_frexp:
  4180                           	opt stack 0
  4181                           tblptru	equ	0xFF8
  4182                           tblptrh	equ	0xFF7
  4183                           tblptrl	equ	0xFF6
  4184                           tablat	equ	0xFF5
  4185                           prodh	equ	0xFF4
  4186                           prodl	equ	0xFF3
  4187                           postinc0	equ	0xFEE
  4188                           wreg	equ	0xFE8
  4189                           postinc1	equ	0xFE6
  4190                           postdec1	equ	0xFE5
  4191                           fsr1l	equ	0xFE1
  4192                           indf2	equ	0xFDF
  4193                           postinc2	equ	0xFDE
  4194                           postdec2	equ	0xFDD
  4195                           fsr2h	equ	0xFDA
  4196                           fsr2l	equ	0xFD9
  4197                           status	equ	0xFD8
  4198                           
  4199 ;; *************** function _eval_poly *****************
  4200 ;; Defined at:
  4201 ;;		line 4 in file "C:\Program Files (x86)\Microchip\xc8\v1.30\sources\common\evalpoly.c"
  4202 ;; Parameters:    Size  Location     Type
  4203 ;;  x               3   42[BANK0 ] PTR int 
  4204 ;;  d               2   45[BANK0 ] PTR const 
  4205 ;;		 -> log@coeff(27), atan@coeff_a(18), atan@coeff_b(15), 
  4206 ;;  n               2   47[BANK0 ] int 
  4207 ;; Auto vars:     Size  Location     Type
  4208 ;;  res             3   54[BANK0 ] int 
  4209 ;; Return value:  Size  Location     Type
  4210 ;;                  3   42[BANK0 ] int 
  4211 ;; Registers used:
  4212 ;;		wreg, status,2, status,0, tblptrl, tblptrh, tblptru, prodl, prodh, cstack
  4213 ;; Tracked objects:
  4214 ;;		On entry : 0/0
  4215 ;;		On exit  : 0/0
  4216 ;;		Unchanged: 0/0
  4217 ;; Data sizes:     COMRAM   BANK0   BANK1   BANK2   BANK3   BANK4   BANK5
  4218 ;;      Params:         0       7       0       0       0       0       0
  4219 ;;      Locals:         0       6       0       0       0       0       0
  4220 ;;      Temps:          0       2       0       0       0       0       0
  4221 ;;      Totals:         0      15       0       0       0       0       0
  4222 ;;Total ram usage:       15 bytes
  4223 ;; Hardware stack levels used:    1
  4224 ;; Hardware stack levels required when called:    5
  4225 ;; This function calls:
  4226 ;;		___ftadd
  4227 ;;		___ftmul
  4228 ;;		___wmul
  4229 ;; This function is called by:
  4230 ;;		_log
  4231 ;;		_atan
  4232 ;; This function uses a non-reentrant model
  4233 ;;
  4234                           
  4235                           	psect	text16
  4236  001D36                     __ptext16:
  4237                           	opt stack 0
  4238  001D36                     _eval_poly:
  4239                           	opt stack 23
  4240                           
  4241                           ;incstack = 0
  4242  001D36  C08F  F01F         	movff	eval_poly@n,___wmul@multiplier
  4243  001D3A  C090  F020         	movff	eval_poly@n+1,___wmul@multiplier+1
  4244  001D3E  0E00               	movlw	0
  4245  001D40  6E22               	movwf	___wmul@multiplicand+1,c
  4246  001D42  0E03               	movlw	3
  4247  001D44  6E21               	movwf	___wmul@multiplicand,c
  4248  001D46  EC95  F013         	call	___wmul	;wreg free
  4249  001D4A  0100               	movlb	0	; () banked
  4250  001D4C  C08D  F091         	movff	eval_poly@d,??_eval_poly
  4251  001D50  0100               	movlb	0	; () banked
  4252  001D52  C08E  F092         	movff	eval_poly@d+1,??_eval_poly+1
  4253  001D56  501F               	movf	?___wmul,w,c
  4254  001D58  0100               	movlb	0	; () banked
  4255  001D5A  2791               	addwf	??_eval_poly& (0+255),f,b
  4256  001D5C  5020               	movf	?___wmul+1,w,c
  4257  001D5E  0100               	movlb	0	; () banked
  4258  001D60  2392               	addwfc	(??_eval_poly+1)& (0+255),f,b
  4259  001D62  C091  FFF6         	movff	??_eval_poly,tblptrl
  4260  001D66  C092  FFF7         	movff	??_eval_poly+1,tblptrh
  4261  001D6A  0009               	tblrd		*+
  4262  001D6C  0100               	movlb	0	; () banked
  4263  001D6E  CFF5 F096          	movff	tablat,eval_poly@res
  4264  001D72  0009               	tblrd		*+
  4265  001D74  0100               	movlb	0	; () banked
  4266  001D76  CFF5 F097          	movff	tablat,eval_poly@res+1
  4267  001D7A  000A               	tblrd		*-
  4268  001D7C  0100               	movlb	0	; () banked
  4269  001D7E  CFF5 F098          	movff	tablat,eval_poly@res+2
  4270  001D82  D047               	goto	l8588
  4271  001D84                     l8586:
  4272                           
  4273                           ; BSR set to: 0
  4274  001D84  C096  F069         	movff	eval_poly@res,___ftmul@f2
  4275  001D88  C097  F06A         	movff	eval_poly@res+1,___ftmul@f2+1
  4276  001D8C  C098  F06B         	movff	eval_poly@res+2,___ftmul@f2+2
  4277  001D90  C08A  F066         	movff	eval_poly@x,___ftmul@f1
  4278  001D94  C08B  F067         	movff	eval_poly@x+1,___ftmul@f1+1
  4279  001D98  C08C  F068         	movff	eval_poly@x+2,___ftmul@f1+2
  4280  001D9C  ECC2  F008         	call	___ftmul	;wreg free
  4281  001DA0  C066  F07B         	movff	?___ftmul,___ftadd@f1
  4282  001DA4  C067  F07C         	movff	?___ftmul+1,___ftadd@f1+1
  4283  001DA8  C068  F07D         	movff	?___ftmul+2,___ftadd@f1+2
  4284  001DAC  0E00               	movlw	0
  4285  001DAE  6E22               	movwf	___wmul@multiplicand+1,c
  4286  001DB0  0E03               	movlw	3
  4287  001DB2  6E21               	movwf	___wmul@multiplicand,c
  4288  001DB4  0100               	movlb	0	; () banked
  4289  001DB6  0100               	movlb	0	; () banked
  4290  001DB8  078F               	decf	eval_poly@n& (0+255),f,b
  4291  001DBA  A0D8               	btfss	status,0,c
  4292  001DBC  0790               	decf	(eval_poly@n+1)& (0+255),f,b
  4293  001DBE  C08F  F01F         	movff	eval_poly@n,___wmul@multiplier
  4294  001DC2  C090  F020         	movff	eval_poly@n+1,___wmul@multiplier+1
  4295  001DC6  EC95  F013         	call	___wmul	;wreg free
  4296  001DCA  0100               	movlb	0	; () banked
  4297  001DCC  C08D  F091         	movff	eval_poly@d,??_eval_poly
  4298  001DD0  0100               	movlb	0	; () banked
  4299  001DD2  C08E  F092         	movff	eval_poly@d+1,??_eval_poly+1
  4300  001DD6  501F               	movf	?___wmul,w,c
  4301  001DD8  0100               	movlb	0	; () banked
  4302  001DDA  2791               	addwf	??_eval_poly& (0+255),f,b
  4303  001DDC  5020               	movf	?___wmul+1,w,c
  4304  001DDE  0100               	movlb	0	; () banked
  4305  001DE0  2392               	addwfc	(??_eval_poly+1)& (0+255),f,b
  4306  001DE2  C091  FFF6         	movff	??_eval_poly,tblptrl
  4307  001DE6  C092  FFF7         	movff	??_eval_poly+1,tblptrh
  4308  001DEA  0009               	tblrd		*+
  4309  001DEC  0100               	movlb	0	; () banked
  4310  001DEE  CFF5 F07E          	movff	tablat,___ftadd@f2
  4311  001DF2  0009               	tblrd		*+
  4312  001DF4  0100               	movlb	0	; () banked
  4313  001DF6  CFF5 F07F          	movff	tablat,___ftadd@f2+1
  4314  001DFA  000A               	tblrd		*-
  4315  001DFC  0100               	movlb	0	; () banked
  4316  001DFE  CFF5 F080          	movff	tablat,___ftadd@f2+2
  4317  001E02  EC0C  F006         	call	___ftadd	;wreg free
  4318  001E06  C07B  F096         	movff	?___ftadd,eval_poly@res
  4319  001E0A  C07C  F097         	movff	?___ftadd+1,eval_poly@res+1
  4320  001E0E  C07D  F098         	movff	?___ftadd+2,eval_poly@res+2
  4321  001E12                     l8588:
  4322  001E12  0100               	movlb	0	; () banked
  4323  001E14  0100               	movlb	0	; () banked
  4324  001E16  5190               	movf	(eval_poly@n+1)& (0+255),w,b
  4325  001E18  118F               	iorwf	eval_poly@n& (0+255),w,b
  4326  001E1A  A4D8               	btfss	status,2,c
  4327  001E1C  D7B3               	goto	l8586
  4328                           
  4329                           ; BSR set to: 0
  4330  001E1E  C096  F08A         	movff	eval_poly@res,?_eval_poly
  4331  001E22  C097  F08B         	movff	eval_poly@res+1,?_eval_poly+1
  4332  001E26  C098  F08C         	movff	eval_poly@res+2,?_eval_poly+2
  4333                           
  4334                           ; BSR set to: 0
  4335  001E2A  0012               	return	
  4336  001E2C                     __end_of_eval_poly:
  4337                           	opt stack 0
  4338                           tblptru	equ	0xFF8
  4339                           tblptrh	equ	0xFF7
  4340                           tblptrl	equ	0xFF6
  4341                           tablat	equ	0xFF5
  4342                           prodh	equ	0xFF4
  4343                           prodl	equ	0xFF3
  4344                           postinc0	equ	0xFEE
  4345                           wreg	equ	0xFE8
  4346                           postinc1	equ	0xFE6
  4347                           postdec1	equ	0xFE5
  4348                           fsr1l	equ	0xFE1
  4349                           indf2	equ	0xFDF
  4350                           postinc2	equ	0xFDE
  4351                           postdec2	equ	0xFDD
  4352                           fsr2h	equ	0xFDA
  4353                           fsr2l	equ	0xFD9
  4354                           status	equ	0xFD8
  4355                           
  4356 ;; *************** function ___wmul *****************
  4357 ;; Defined at:
  4358 ;;		line 4 in file "C:\Program Files (x86)\Microchip\xc8\v1.30\sources\common\wmul.c"
  4359 ;; Parameters:    Size  Location     Type
  4360 ;;  multiplier      2   30[COMRAM] unsigned int 
  4361 ;;  multiplicand    2   32[COMRAM] unsigned int 
  4362 ;; Auto vars:     Size  Location     Type
  4363 ;;  product         2   36[COMRAM] unsigned int 
  4364 ;; Return value:  Size  Location     Type
  4365 ;;                  2   30[COMRAM] unsigned int 
  4366 ;; Registers used:
  4367 ;;		wreg, status,2, status,0, prodl, prodh
  4368 ;; Tracked objects:
  4369 ;;		On entry : 0/0
  4370 ;;		On exit  : 0/0
  4371 ;;		Unchanged: 0/0
  4372 ;; Data sizes:     COMRAM   BANK0   BANK1   BANK2   BANK3   BANK4   BANK5
  4373 ;;      Params:         4       0       0       0       0       0       0
  4374 ;;      Locals:         4       0       0       0       0       0       0
  4375 ;;      Temps:          0       0       0       0       0       0       0
  4376 ;;      Totals:         8       0       0       0       0       0       0
  4377 ;;Total ram usage:        8 bytes
  4378 ;; Hardware stack levels used:    1
  4379 ;; Hardware stack levels required when called:    3
  4380 ;; This function calls:
  4381 ;;		Nothing
  4382 ;; This function is called by:
  4383 ;;		_main
  4384 ;;		_atoi
  4385 ;;		_eval_poly
  4386 ;; This function uses a non-reentrant model
  4387 ;;
  4388                           
  4389                           	psect	text17
  4390  00272A                     __ptext17:
  4391                           	opt stack 0
  4392  00272A                     ___wmul:
  4393                           	opt stack 26
  4394                           
  4395                           ; BSR set to: 0
  4396                           ;incstack = 0
  4397  00272A  501F               	movf	___wmul@multiplier,w,c
  4398  00272C  0221               	mulwf	___wmul@multiplicand,c
  4399  00272E  CFF3 F025          	movff	prodl,___wmul@product
  4400  002732  CFF4 F026          	movff	prodh,___wmul@product+1
  4401  002736  501F               	movf	___wmul@multiplier,w,c
  4402  002738  0222               	mulwf	___wmul@multiplicand+1,c
  4403  00273A  CFF3 FFF4          	movff	prodl,prodh
  4404  00273E  6AF3               	clrf	prodl,c
  4405  002740  50F3               	movf	prodl,w,c
  4406  002742  2625               	addwf	___wmul@product,f,c
  4407  002744  50F4               	movf	prodh,w,c
  4408  002746  2226               	addwfc	___wmul@product+1,f,c
  4409  002748  5020               	movf	___wmul@multiplier+1,w,c
  4410  00274A  0221               	mulwf	___wmul@multiplicand,c
  4411  00274C  CFF3 FFF4          	movff	prodl,prodh
  4412  002750  6AF3               	clrf	prodl,c
  4413  002752  50F3               	movf	prodl,w,c
  4414  002754  2625               	addwf	___wmul@product,f,c
  4415  002756  50F4               	movf	prodh,w,c
  4416  002758  2226               	addwfc	___wmul@product+1,f,c
  4417  00275A  C025  F01F         	movff	___wmul@product,?___wmul
  4418  00275E  C026  F020         	movff	___wmul@product+1,?___wmul+1
  4419  002762  0012               	return	
  4420  002764                     __end_of___wmul:
  4421                           	opt stack 0
  4422                           tblptru	equ	0xFF8
  4423                           tblptrh	equ	0xFF7
  4424                           tblptrl	equ	0xFF6
  4425                           tablat	equ	0xFF5
  4426                           prodh	equ	0xFF4
  4427                           prodl	equ	0xFF3
  4428                           postinc0	equ	0xFEE
  4429                           wreg	equ	0xFE8
  4430                           postinc1	equ	0xFE6
  4431                           postdec1	equ	0xFE5
  4432                           fsr1l	equ	0xFE1
  4433                           indf2	equ	0xFDF
  4434                           postinc2	equ	0xFDE
  4435                           postdec2	equ	0xFDD
  4436                           fsr2h	equ	0xFDA
  4437                           fsr2l	equ	0xFD9
  4438                           status	equ	0xFD8
  4439                           
  4440 ;; *************** function ___ftneg *****************
  4441 ;; Defined at:
  4442 ;;		line 15 in file "C:\Program Files (x86)\Microchip\xc8\v1.30\sources\common\ftneg.c"
  4443 ;; Parameters:    Size  Location     Type
  4444 ;;  f1              3   64[BANK0 ] float 
  4445 ;; Auto vars:     Size  Location     Type
  4446 ;;		None
  4447 ;; Return value:  Size  Location     Type
  4448 ;;                  3   64[BANK0 ] float 
  4449 ;; Registers used:
  4450 ;;		wreg, status,2, status,0
  4451 ;; Tracked objects:
  4452 ;;		On entry : 0/0
  4453 ;;		On exit  : 0/0
  4454 ;;		Unchanged: 0/0
  4455 ;; Data sizes:     COMRAM   BANK0   BANK1   BANK2   BANK3   BANK4   BANK5
  4456 ;;      Params:         0       3       0       0       0       0       0
  4457 ;;      Locals:         0       0       0       0       0       0       0
  4458 ;;      Temps:          0       0       0       0       0       0       0
  4459 ;;      Totals:         0       3       0       0       0       0       0
  4460 ;;Total ram usage:        3 bytes
  4461 ;; Hardware stack levels used:    1
  4462 ;; Hardware stack levels required when called:    3
  4463 ;; This function calls:
  4464 ;;		Nothing
  4465 ;; This function is called by:
  4466 ;;		_Tomcat_Temp_Ex
  4467 ;;		_Tomcat_Heading
  4468 ;;		_atan
  4469 ;;		_fabs
  4470 ;; This function uses a non-reentrant model
  4471 ;;
  4472                           
  4473                           	psect	text18
  4474  002764                     __ptext18:
  4475                           	opt stack 0
  4476  002764                     ___ftneg:
  4477                           	opt stack 26
  4478                           
  4479                           ;incstack = 0
  4480  002764  0E7F               	movlw	127
  4481  002766  0100               	movlb	0	; () banked
  4482  002768  0100               	movlb	0	; () banked
  4483  00276A  15A2               	andwf	(___ftneg@f1+2)& (0+255),w,b
  4484  00276C  0100               	movlb	0	; () banked
  4485  00276E  11A1               	iorwf	(___ftneg@f1+1)& (0+255),w,b
  4486  002770  0100               	movlb	0	; () banked
  4487  002772  11A0               	iorwf	___ftneg@f1& (0+255),w,b
  4488  002774  B4D8               	btfsc	status,2,c
  4489  002776  D00C               	goto	l1229
  4490                           
  4491                           ; BSR set to: 0
  4492  002778  0E00               	movlw	0
  4493  00277A  0100               	movlb	0	; () banked
  4494  00277C  0100               	movlb	0	; () banked
  4495  00277E  1BA0               	xorwf	___ftneg@f1& (0+255),f,b
  4496  002780  0E00               	movlw	0
  4497  002782  0100               	movlb	0	; () banked
  4498  002784  0100               	movlb	0	; () banked
  4499  002786  1BA1               	xorwf	(___ftneg@f1+1)& (0+255),f,b
  4500  002788  0E80               	movlw	128
  4501  00278A  0100               	movlb	0	; () banked
  4502  00278C  0100               	movlb	0	; () banked
  4503  00278E  1BA2               	xorwf	(___ftneg@f1+2)& (0+255),f,b
  4504  002790                     l1229:
  4505                           
  4506                           ; BSR set to: 0
  4507  002790  C0A0  F0A0         	movff	___ftneg@f1,?___ftneg
  4508  002794  C0A1  F0A1         	movff	___ftneg@f1+1,?___ftneg+1
  4509  002798  C0A2  F0A2         	movff	___ftneg@f1+2,?___ftneg+2
  4510                           
  4511                           ; BSR set to: 0
  4512  00279C  0012               	return	
  4513  00279E                     __end_of___ftneg:
  4514                           	opt stack 0
  4515                           tblptru	equ	0xFF8
  4516                           tblptrh	equ	0xFF7
  4517                           tblptrl	equ	0xFF6
  4518                           tablat	equ	0xFF5
  4519                           prodh	equ	0xFF4
  4520                           prodl	equ	0xFF3
  4521                           postinc0	equ	0xFEE
  4522                           wreg	equ	0xFE8
  4523                           postinc1	equ	0xFE6
  4524                           postdec1	equ	0xFE5
  4525                           fsr1l	equ	0xFE1
  4526                           indf2	equ	0xFDF
  4527                           postinc2	equ	0xFDE
  4528                           postdec2	equ	0xFDD
  4529                           fsr2h	equ	0xFDA
  4530                           fsr2l	equ	0xFD9
  4531                           status	equ	0xFD8
  4532                           
  4533 ;; *************** function _Tomcat_Temp *****************
  4534 ;; Defined at:
  4535 ;;		line 229 in file "Tomcat_V_driver.c"
  4536 ;; Parameters:    Size  Location     Type
  4537 ;;		None
  4538 ;; Auto vars:     Size  Location     Type
  4539 ;;  temp            3   48[BANK0 ] float 
  4540 ;; Return value:  Size  Location     Type
  4541 ;;                  2   42[BANK0 ] int 
  4542 ;; Registers used:
  4543 ;;		wreg, status,2, status,0, cstack
  4544 ;; Tracked objects:
  4545 ;;		On entry : 0/0
  4546 ;;		On exit  : 0/0
  4547 ;;		Unchanged: 0/0
  4548 ;; Data sizes:     COMRAM   BANK0   BANK1   BANK2   BANK3   BANK4   BANK5
  4549 ;;      Params:         0       2       0       0       0       0       0
  4550 ;;      Locals:         0       3       0       0       0       0       0
  4551 ;;      Temps:          0       4       0       0       0       0       0
  4552 ;;      Totals:         0       9       0       0       0       0       0
  4553 ;;Total ram usage:        9 bytes
  4554 ;; Hardware stack levels used:    1
  4555 ;; Hardware stack levels required when called:    5
  4556 ;; This function calls:
  4557 ;;		___ftdiv
  4558 ;;		___ftmul
  4559 ;;		___fttol
  4560 ;;		___lwtoft
  4561 ;;		_analogRead
  4562 ;; This function is called by:
  4563 ;;		_main
  4564 ;; This function uses a non-reentrant model
  4565 ;;
  4566                           
  4567                           	psect	text19
  4568  001FE6                     __ptext19:
  4569                           	opt stack 0
  4570  001FE6                     _Tomcat_Temp:
  4571                           	opt stack 25
  4572                           
  4573                           ;Tomcat_V_driver.c: 230: float temp = 0.0;
  4574                           
  4575                           ; BSR set to: 0
  4576                           ;incstack = 0
  4577  001FE6  0E00               	movlw	0
  4578  001FE8  0100               	movlb	0	; () banked
  4579  001FEA  0100               	movlb	0	; () banked
  4580  001FEC  6F90               	movwf	Tomcat_Temp@temp& (0+255),b
  4581  001FEE  0E00               	movlw	0
  4582  001FF0  0100               	movlb	0	; () banked
  4583  001FF2  0100               	movlb	0	; () banked
  4584  001FF4  6F91               	movwf	(Tomcat_Temp@temp+1)& (0+255),b
  4585  001FF6  0E00               	movlw	0
  4586  001FF8  0100               	movlb	0	; () banked
  4587  001FFA  0100               	movlb	0	; () banked
  4588  001FFC  6F92               	movwf	(Tomcat_Temp@temp+2)& (0+255),b
  4589                           
  4590                           ; BSR set to: 0
  4591                           ;Tomcat_V_driver.c: 231: temp = analogRead(8);
  4592  001FFE  0E08               	movlw	8
  4593  002000  EC09  F014         	call	_analogRead
  4594  002004  C016  F01F         	movff	?_analogRead,___lwtoft@c
  4595  002008  C017  F020         	movff	?_analogRead+1,___lwtoft@c+1
  4596  00200C  EC69  F014         	call	___lwtoft	;wreg free
  4597  002010  C01F  F090         	movff	?___lwtoft,Tomcat_Temp@temp
  4598  002014  C020  F091         	movff	?___lwtoft+1,Tomcat_Temp@temp+1
  4599  002018  C021  F092         	movff	?___lwtoft+2,Tomcat_Temp@temp+2
  4600                           
  4601                           ;Tomcat_V_driver.c: 232: temp = (temp / 1024.0) * 500.0;
  4602  00201C  0E00               	movlw	0
  4603  00201E  0100               	movlb	0	; () banked
  4604  002020  0100               	movlb	0	; () banked
  4605  002022  6F63               	movwf	___ftdiv@f2& (0+255),b
  4606  002024  0E80               	movlw	128
  4607  002026  0100               	movlb	0	; () banked
  4608  002028  0100               	movlb	0	; () banked
  4609  00202A  6F64               	movwf	(___ftdiv@f2+1)& (0+255),b
  4610  00202C  0E44               	movlw	68
  4611  00202E  0100               	movlb	0	; () banked
  4612  002030  0100               	movlb	0	; () banked
  4613  002032  6F65               	movwf	(___ftdiv@f2+2)& (0+255),b
  4614  002034  C090  F060         	movff	Tomcat_Temp@temp,___ftdiv@f1
  4615  002038  C091  F061         	movff	Tomcat_Temp@temp+1,___ftdiv@f1+1
  4616  00203C  C092  F062         	movff	Tomcat_Temp@temp+2,___ftdiv@f1+2
  4617  002040  ECE3  F00C         	call	___ftdiv	;wreg free
  4618  002044  C060  F066         	movff	?___ftdiv,___ftmul@f1
  4619  002048  C061  F067         	movff	?___ftdiv+1,___ftmul@f1+1
  4620  00204C  C062  F068         	movff	?___ftdiv+2,___ftmul@f1+2
  4621  002050  0E00               	movlw	0
  4622  002052  0100               	movlb	0	; () banked
  4623  002054  0100               	movlb	0	; () banked
  4624  002056  6F69               	movwf	___ftmul@f2& (0+255),b
  4625  002058  0EFA               	movlw	250
  4626  00205A  0100               	movlb	0	; () banked
  4627  00205C  0100               	movlb	0	; () banked
  4628  00205E  6F6A               	movwf	(___ftmul@f2+1)& (0+255),b
  4629  002060  0E43               	movlw	67
  4630  002062  0100               	movlb	0	; () banked
  4631  002064  0100               	movlb	0	; () banked
  4632  002066  6F6B               	movwf	(___ftmul@f2+2)& (0+255),b
  4633  002068  ECC2  F008         	call	___ftmul	;wreg free
  4634  00206C  C066  F090         	movff	?___ftmul,Tomcat_Temp@temp
  4635  002070  C067  F091         	movff	?___ftmul+1,Tomcat_Temp@temp+1
  4636  002074  C068  F092         	movff	?___ftmul+2,Tomcat_Temp@temp+2
  4637                           
  4638                           ;Tomcat_V_driver.c: 233: return (int)temp;
  4639  002078  C090  F07B         	movff	Tomcat_Temp@temp,___fttol@f1
  4640  00207C  C091  F07C         	movff	Tomcat_Temp@temp+1,___fttol@f1+1
  4641  002080  C092  F07D         	movff	Tomcat_Temp@temp+2,___fttol@f1+2
  4642  002084  ECAE  F009         	call	___fttol	;wreg free
  4643  002088  C07B  F08C         	movff	?___fttol,??_Tomcat_Temp
  4644  00208C  C07C  F08D         	movff	?___fttol+1,??_Tomcat_Temp+1
  4645  002090  C07D  F08E         	movff	?___fttol+2,??_Tomcat_Temp+2
  4646  002094  C07E  F08F         	movff	?___fttol+3,??_Tomcat_Temp+3
  4647  002098  C08C  F08A         	movff	??_Tomcat_Temp,?_Tomcat_Temp
  4648  00209C  C08D  F08B         	movff	??_Tomcat_Temp+1,?_Tomcat_Temp+1
  4649  0020A0  0012               	return	
  4650  0020A2                     __end_of_Tomcat_Temp:
  4651                           	opt stack 0
  4652                           tblptru	equ	0xFF8
  4653                           tblptrh	equ	0xFF7
  4654                           tblptrl	equ	0xFF6
  4655                           tablat	equ	0xFF5
  4656                           prodh	equ	0xFF4
  4657                           prodl	equ	0xFF3
  4658                           postinc0	equ	0xFEE
  4659                           wreg	equ	0xFE8
  4660                           postinc1	equ	0xFE6
  4661                           postdec1	equ	0xFE5
  4662                           fsr1l	equ	0xFE1
  4663                           indf2	equ	0xFDF
  4664                           postinc2	equ	0xFDE
  4665                           postdec2	equ	0xFDD
  4666                           fsr2h	equ	0xFDA
  4667                           fsr2l	equ	0xFD9
  4668                           status	equ	0xFD8
  4669                           
  4670 ;; *************** function _Tomcat_TX_warn *****************
  4671 ;; Defined at:
  4672 ;;		line 285 in file "Tomcat_V_driver.c"
  4673 ;; Parameters:    Size  Location     Type
  4674 ;;  code            1    wreg     unsigned char 
  4675 ;; Auto vars:     Size  Location     Type
  4676 ;;  code            1   22[COMRAM] unsigned char 
  4677 ;; Return value:  Size  Location     Type
  4678 ;;		None               void
  4679 ;; Registers used:
  4680 ;;		wreg, status,2, cstack
  4681 ;; Tracked objects:
  4682 ;;		On entry : 0/0
  4683 ;;		On exit  : 0/0
  4684 ;;		Unchanged: 0/0
  4685 ;; Data sizes:     COMRAM   BANK0   BANK1   BANK2   BANK3   BANK4   BANK5
  4686 ;;      Params:         0       0       0       0       0       0       0
  4687 ;;      Locals:         1       0       0       0       0       0       0
  4688 ;;      Temps:          0       0       0       0       0       0       0
  4689 ;;      Totals:         1       0       0       0       0       0       0
  4690 ;;Total ram usage:        1 bytes
  4691 ;; Hardware stack levels used:    1
  4692 ;; Hardware stack levels required when called:    4
  4693 ;; This function calls:
  4694 ;;		_Write1USART
  4695 ;; This function is called by:
  4696 ;;		_main
  4697 ;; This function uses a non-reentrant model
  4698 ;;
  4699                           
  4700                           	psect	text20
  4701  00294E                     __ptext20:
  4702                           	opt stack 0
  4703  00294E                     _Tomcat_TX_warn:
  4704                           	opt stack 26
  4705                           
  4706                           ;incstack = 0
  4707                           ;Tomcat_TX_warn@code stored from wreg
  4708  00294E  CFE8 F017          	movff	wreg,Tomcat_TX_warn@code
  4709  002952                     l570:
  4710  002952  A2AC               	btfss	4012,1,c	;volatile
  4711  002954  D7FE               	goto	l570
  4712                           
  4713                           ;Tomcat_V_driver.c: 288: Write1USART('$');
  4714  002956  0E24               	movlw	36
  4715  002958  ECD6  F014         	call	_Write1USART
  4716  00295C                     l573:
  4717  00295C  A2AC               	btfss	4012,1,c	;volatile
  4718  00295E  D7FE               	goto	l573
  4719                           
  4720                           ;Tomcat_V_driver.c: 290: Write1USART('?');
  4721  002960  0E3F               	movlw	63
  4722  002962  ECD6  F014         	call	_Write1USART
  4723  002966                     l576:
  4724  002966  A2AC               	btfss	4012,1,c	;volatile
  4725  002968  D7FE               	goto	l576
  4726                           
  4727                           ;Tomcat_V_driver.c: 292: Write1USART(code);
  4728  00296A  5017               	movf	Tomcat_TX_warn@code,w,c
  4729  00296C  ECD6  F014         	call	_Write1USART
  4730  002970  0012               	return	
  4731  002972                     __end_of_Tomcat_TX_warn:
  4732                           	opt stack 0
  4733                           tblptru	equ	0xFF8
  4734                           tblptrh	equ	0xFF7
  4735                           tblptrl	equ	0xFF6
  4736                           tablat	equ	0xFF5
  4737                           prodh	equ	0xFF4
  4738                           prodl	equ	0xFF3
  4739                           postinc0	equ	0xFEE
  4740                           wreg	equ	0xFE8
  4741                           postinc1	equ	0xFE6
  4742                           postdec1	equ	0xFE5
  4743                           fsr1l	equ	0xFE1
  4744                           indf2	equ	0xFDF
  4745                           postinc2	equ	0xFDE
  4746                           postdec2	equ	0xFDD
  4747                           fsr2h	equ	0xFDA
  4748                           fsr2l	equ	0xFD9
  4749                           status	equ	0xFD8
  4750                           
  4751 ;; *************** function _Tomcat_TX_error *****************
  4752 ;; Defined at:
  4753 ;;		line 295 in file "Tomcat_V_driver.c"
  4754 ;; Parameters:    Size  Location     Type
  4755 ;;  code            1    wreg     unsigned char 
  4756 ;; Auto vars:     Size  Location     Type
  4757 ;;  code            1   22[COMRAM] unsigned char 
  4758 ;; Return value:  Size  Location     Type
  4759 ;;		None               void
  4760 ;; Registers used:
  4761 ;;		wreg, status,2, cstack
  4762 ;; Tracked objects:
  4763 ;;		On entry : 0/0
  4764 ;;		On exit  : 0/0
  4765 ;;		Unchanged: 0/0
  4766 ;; Data sizes:     COMRAM   BANK0   BANK1   BANK2   BANK3   BANK4   BANK5
  4767 ;;      Params:         0       0       0       0       0       0       0
  4768 ;;      Locals:         1       0       0       0       0       0       0
  4769 ;;      Temps:          0       0       0       0       0       0       0
  4770 ;;      Totals:         1       0       0       0       0       0       0
  4771 ;;Total ram usage:        1 bytes
  4772 ;; Hardware stack levels used:    1
  4773 ;; Hardware stack levels required when called:    4
  4774 ;; This function calls:
  4775 ;;		_Write1USART
  4776 ;; This function is called by:
  4777 ;;		_main
  4778 ;; This function uses a non-reentrant model
  4779 ;;
  4780                           
  4781                           	psect	text21
  4782  002848                     __ptext21:
  4783                           	opt stack 0
  4784  002848                     _Tomcat_TX_error:
  4785                           	opt stack 26
  4786                           
  4787                           ;incstack = 0
  4788                           ;Tomcat_TX_error@code stored from wreg
  4789  002848  CFE8 F017          	movff	wreg,Tomcat_TX_error@code
  4790  00284C                     l582:
  4791  00284C  A2AC               	btfss	4012,1,c	;volatile
  4792  00284E  D7FE               	goto	l582
  4793                           
  4794                           ;Tomcat_V_driver.c: 298: Write1USART('$');
  4795  002850  0E24               	movlw	36
  4796  002852  ECD6  F014         	call	_Write1USART
  4797  002856                     l585:
  4798  002856  A2AC               	btfss	4012,1,c	;volatile
  4799  002858  D7FE               	goto	l585
  4800                           
  4801                           ;Tomcat_V_driver.c: 300: Write1USART('!');
  4802  00285A  0E21               	movlw	33
  4803  00285C  ECD6  F014         	call	_Write1USART
  4804  002860                     l588:
  4805  002860  A2AC               	btfss	4012,1,c	;volatile
  4806  002862  D7FE               	goto	l588
  4807                           
  4808                           ;Tomcat_V_driver.c: 302: Write1USART(code);
  4809  002864  5017               	movf	Tomcat_TX_error@code,w,c
  4810  002866  ECD6  F014         	call	_Write1USART
  4811  00286A                     l591:
  4812  00286A  A2AC               	btfss	4012,1,c	;volatile
  4813  00286C  D7FE               	goto	l591
  4814                           
  4815                           ;Tomcat_V_driver.c: 304: Write1USART('\n');
  4816  00286E  0E0A               	movlw	10
  4817  002870  ECD6  F014         	call	_Write1USART
  4818  002874  0012               	return	
  4819  002876                     __end_of_Tomcat_TX_error:
  4820                           	opt stack 0
  4821                           tblptru	equ	0xFF8
  4822                           tblptrh	equ	0xFF7
  4823                           tblptrl	equ	0xFF6
  4824                           tablat	equ	0xFF5
  4825                           prodh	equ	0xFF4
  4826                           prodl	equ	0xFF3
  4827                           postinc0	equ	0xFEE
  4828                           wreg	equ	0xFE8
  4829                           postinc1	equ	0xFE6
  4830                           postdec1	equ	0xFE5
  4831                           fsr1l	equ	0xFE1
  4832                           indf2	equ	0xFDF
  4833                           postinc2	equ	0xFDE
  4834                           postdec2	equ	0xFDD
  4835                           fsr2h	equ	0xFDA
  4836                           fsr2l	equ	0xFD9
  4837                           status	equ	0xFD8
  4838                           
  4839 ;; *************** function _Tomcat_TX_data *****************
  4840 ;; Defined at:
  4841 ;;		line 272 in file "Tomcat_V_driver.c"
  4842 ;; Parameters:    Size  Location     Type
  4843 ;;  tx_buff         2   27[COMRAM] PTR unsigned char 
  4844 ;;		 -> main@surf_buff(60), 
  4845 ;;  num_bytes       1   29[COMRAM] unsigned char 
  4846 ;; Auto vars:     Size  Location     Type
  4847 ;;  k               1   31[COMRAM] unsigned char 
  4848 ;; Return value:  Size  Location     Type
  4849 ;;		None               void
  4850 ;; Registers used:
  4851 ;;		wreg, fsr2l, fsr2h, status,2, status,0, prodl, prodh, cstack
  4852 ;; Tracked objects:
  4853 ;;		On entry : 0/0
  4854 ;;		On exit  : 0/0
  4855 ;;		Unchanged: 0/0
  4856 ;; Data sizes:     COMRAM   BANK0   BANK1   BANK2   BANK3   BANK4   BANK5
  4857 ;;      Params:         3       0       0       0       0       0       0
  4858 ;;      Locals:         1       0       0       0       0       0       0
  4859 ;;      Temps:          1       0       0       0       0       0       0
  4860 ;;      Totals:         5       0       0       0       0       0       0
  4861 ;;Total ram usage:        5 bytes
  4862 ;; Hardware stack levels used:    1
  4863 ;; Hardware stack levels required when called:    4
  4864 ;; This function calls:
  4865 ;;		_Write1USART
  4866 ;; This function is called by:
  4867 ;;		_main
  4868 ;; This function uses a non-reentrant model
  4869 ;;
  4870                           
  4871                           	psect	text22
  4872  00259E                     __ptext22:
  4873                           	opt stack 0
  4874  00259E                     _Tomcat_TX_data:
  4875                           	opt stack 26
  4876                           
  4877                           ;Tomcat_V_driver.c: 273: char k = 0;
  4878                           
  4879                           ;incstack = 0
  4880  00259E  6E1F               	movwf	??_Tomcat_TX_data& (0+255),c
  4881  0025A0  0E00               	movlw	0
  4882  0025A2  6E20               	movwf	Tomcat_TX_data@k,c
  4883  0025A4  501F               	movf	??_Tomcat_TX_data& (0+255),w,c
  4884  0025A6                     l555:
  4885  0025A6  A2AC               	btfss	4012,1,c	;volatile
  4886  0025A8  D7FE               	goto	l555
  4887                           
  4888                           ;Tomcat_V_driver.c: 275: Write1USART('$');
  4889  0025AA  0E24               	movlw	36
  4890  0025AC  ECD6  F014         	call	_Write1USART
  4891                           
  4892                           ;Tomcat_V_driver.c: 277: for (k = 0; k < num_bytes; k++) {
  4893  0025B0  6E1F               	movwf	??_Tomcat_TX_data& (0+255),c
  4894  0025B2  0E00               	movlw	0
  4895  0025B4  6E20               	movwf	Tomcat_TX_data@k,c
  4896  0025B6  501F               	movf	??_Tomcat_TX_data& (0+255),w,c
  4897  0025B8  D00E               	goto	l5032
  4898  0025BA                     l560:
  4899  0025BA  A2AC               	btfss	4012,1,c	;volatile
  4900  0025BC  D7FE               	goto	l560
  4901                           
  4902                           ;Tomcat_V_driver.c: 279: Write1USART(tx_buff[k]);
  4903  0025BE  5020               	movf	Tomcat_TX_data@k,w,c
  4904  0025C0  0D01               	mullw	1
  4905  0025C2  50F3               	movf	prodl,w,c
  4906  0025C4  241C               	addwf	Tomcat_TX_data@tx_buff,w,c
  4907  0025C6  6ED9               	movwf	fsr2l,c
  4908  0025C8  50F4               	movf	prodh,w,c
  4909  0025CA  201D               	addwfc	Tomcat_TX_data@tx_buff+1,w,c
  4910  0025CC  6EDA               	movwf	fsr2h,c
  4911  0025CE  50DF               	movf	indf2,w,c
  4912  0025D0  ECD6  F014         	call	_Write1USART
  4913  0025D4  2A20               	incf	Tomcat_TX_data@k,f,c
  4914  0025D6                     l5032:
  4915  0025D6  501E               	movf	Tomcat_TX_data@num_bytes,w,c
  4916  0025D8  5C20               	subwf	Tomcat_TX_data@k,w,c
  4917  0025DA  A0D8               	btfss	status,0,c
  4918  0025DC  D7EE               	goto	l560
  4919  0025DE                     l564:
  4920  0025DE  A2AC               	btfss	4012,1,c	;volatile
  4921  0025E0  D7FE               	goto	l564
  4922                           
  4923                           ;Tomcat_V_driver.c: 282: Write1USART('\n');
  4924  0025E2  0E0A               	movlw	10
  4925  0025E4  ECD6  F014         	call	_Write1USART
  4926  0025E8  0012               	return	
  4927  0025EA                     __end_of_Tomcat_TX_data:
  4928                           	opt stack 0
  4929                           tblptru	equ	0xFF8
  4930                           tblptrh	equ	0xFF7
  4931                           tblptrl	equ	0xFF6
  4932                           tablat	equ	0xFF5
  4933                           prodh	equ	0xFF4
  4934                           prodl	equ	0xFF3
  4935                           postinc0	equ	0xFEE
  4936                           wreg	equ	0xFE8
  4937                           postinc1	equ	0xFE6
  4938                           postdec1	equ	0xFE5
  4939                           fsr1l	equ	0xFE1
  4940                           indf2	equ	0xFDF
  4941                           postinc2	equ	0xFDE
  4942                           postdec2	equ	0xFDD
  4943                           fsr2h	equ	0xFDA
  4944                           fsr2l	equ	0xFD9
  4945                           status	equ	0xFD8
  4946                           
  4947 ;; *************** function _Write1USART *****************
  4948 ;; Defined at:
  4949 ;;		line 14 in file "C:\Program Files (x86)\Microchip\xc8\v1.30\sources\pic18\plib\USART\u1write.c"
  4950 ;; Parameters:    Size  Location     Type
  4951 ;;  data            1    wreg     unsigned char 
  4952 ;; Auto vars:     Size  Location     Type
  4953 ;;  data            1   21[COMRAM] unsigned char 
  4954 ;; Return value:  Size  Location     Type
  4955 ;;		None               void
  4956 ;; Registers used:
  4957 ;;		wreg
  4958 ;; Tracked objects:
  4959 ;;		On entry : 0/0
  4960 ;;		On exit  : 0/0
  4961 ;;		Unchanged: 0/0
  4962 ;; Data sizes:     COMRAM   BANK0   BANK1   BANK2   BANK3   BANK4   BANK5
  4963 ;;      Params:         0       0       0       0       0       0       0
  4964 ;;      Locals:         1       0       0       0       0       0       0
  4965 ;;      Temps:          0       0       0       0       0       0       0
  4966 ;;      Totals:         1       0       0       0       0       0       0
  4967 ;;Total ram usage:        1 bytes
  4968 ;; Hardware stack levels used:    1
  4969 ;; Hardware stack levels required when called:    3
  4970 ;; This function calls:
  4971 ;;		Nothing
  4972 ;; This function is called by:
  4973 ;;		_Tomcat_TX_data
  4974 ;;		_Tomcat_TX_warn
  4975 ;;		_Tomcat_TX_error
  4976 ;;		_puts1USART
  4977 ;; This function uses a non-reentrant model
  4978 ;;
  4979                           
  4980                           	psect	text23
  4981  0029AC                     __ptext23:
  4982                           	opt stack 0
  4983  0029AC                     _Write1USART:
  4984                           	opt stack 26
  4985                           
  4986                           ;incstack = 0
  4987                           ;Write1USART@data stored from wreg
  4988  0029AC  CFE8 F016          	movff	wreg,Write1USART@data
  4989  0029B0  ACAC               	btfss	4012,6,c	;volatile
  4990  0029B2  D003               	goto	l5340
  4991  0029B4  90AC               	bcf	4012,0,c	;volatile
  4992  0029B6  B242               	btfsc	_USART1_Status,1,c
  4993  0029B8  80AC               	bsf	4012,0,c	;volatile
  4994  0029BA                     l5340:
  4995  0029BA  C016  FFAD         	movff	Write1USART@data,4013	;volatile
  4996  0029BE  0012               	return	
  4997  0029C0                     __end_of_Write1USART:
  4998                           	opt stack 0
  4999                           tblptru	equ	0xFF8
  5000                           tblptrh	equ	0xFF7
  5001                           tblptrl	equ	0xFF6
  5002                           tablat	equ	0xFF5
  5003                           prodh	equ	0xFF4
  5004                           prodl	equ	0xFF3
  5005                           postinc0	equ	0xFEE
  5006                           wreg	equ	0xFE8
  5007                           postinc1	equ	0xFE6
  5008                           postdec1	equ	0xFE5
  5009                           fsr1l	equ	0xFE1
  5010                           indf2	equ	0xFDF
  5011                           postinc2	equ	0xFDE
  5012                           postdec2	equ	0xFDD
  5013                           fsr2h	equ	0xFDA
  5014                           fsr2l	equ	0xFD9
  5015                           status	equ	0xFD8
  5016                           
  5017 ;; *************** function _Tomcat_Setup *****************
  5018 ;; Defined at:
  5019 ;;		line 7 in file "Tomcat_V_driver.c"
  5020 ;; Parameters:    Size  Location     Type
  5021 ;;		None
  5022 ;; Auto vars:     Size  Location     Type
  5023 ;;		None
  5024 ;; Return value:  Size  Location     Type
  5025 ;;		None               void
  5026 ;; Registers used:
  5027 ;;		wreg, status,2, status,0, cstack
  5028 ;; Tracked objects:
  5029 ;;		On entry : 0/0
  5030 ;;		On exit  : 0/0
  5031 ;;		Unchanged: 0/0
  5032 ;; Data sizes:     COMRAM   BANK0   BANK1   BANK2   BANK3   BANK4   BANK5
  5033 ;;      Params:         0       0       0       0       0       0       0
  5034 ;;      Locals:         0       0       0       0       0       0       0
  5035 ;;      Temps:          1       0       0       0       0       0       0
  5036 ;;      Totals:         1       0       0       0       0       0       0
  5037 ;;Total ram usage:        1 bytes
  5038 ;; Hardware stack levels used:    1
  5039 ;; Hardware stack levels required when called:    4
  5040 ;; This function calls:
  5041 ;;		_Open1USART
  5042 ;;		_OpenI2C1
  5043 ;; This function is called by:
  5044 ;;		_main
  5045 ;; This function uses a non-reentrant model
  5046 ;;
  5047                           
  5048                           	psect	text24
  5049  001E2C                     __ptext24:
  5050                           	opt stack 0
  5051  001E2C                     _Tomcat_Setup:
  5052                           	opt stack 26
  5053                           
  5054                           ;Tomcat_V_driver.c: 10: ADCON0 = 0b00000001;
  5055                           
  5056                           ;incstack = 0
  5057  001E2C  0E01               	movlw	1
  5058  001E2E  6EC2               	movwf	4034,c	;volatile
  5059                           
  5060                           ;Tomcat_V_driver.c: 11: ADCON1 = 0b00000000;
  5061  001E30  0E00               	movlw	0
  5062  001E32  6EC1               	movwf	4033,c	;volatile
  5063                           
  5064                           ;Tomcat_V_driver.c: 12: ADCON2 = 0b10100011;
  5065  001E34  0EA3               	movlw	163
  5066  001E36  6EC0               	movwf	4032,c	;volatile
  5067                           
  5068                           ;Tomcat_V_driver.c: 16: INTCON = 0b11110000;
  5069  001E38  0EF0               	movlw	240
  5070  001E3A  6EF2               	movwf	intcon,c	;volatile
  5071                           
  5072                           ;Tomcat_V_driver.c: 17: PIE1 = 0b00100001;
  5073  001E3C  0E21               	movlw	33
  5074  001E3E  6E9D               	movwf	3997,c	;volatile
  5075                           
  5076                           ;Tomcat_V_driver.c: 18: PIE2bits.OSCFIE = 1;
  5077  001E40  8EA0               	bsf	4000,7,c	;volatile
  5078                           
  5079                           ;Tomcat_V_driver.c: 20: TRISA = 0b11101111;
  5080  001E42  0EEF               	movlw	239
  5081  001E44  6E92               	movwf	3986,c	;volatile
  5082                           
  5083                           ;Tomcat_V_driver.c: 21: ANSELA = 0b00101111;
  5084  001E46  0E2F               	movlw	47
  5085  001E48  010F               	movlb	15	; () banked
  5086  001E4A  010F               	movlb	15	; () banked
  5087  001E4C  6F38               	movwf	56,b	;volatile
  5088                           
  5089                           ;Tomcat_V_driver.c: 22: PORTA = 0b00000000;
  5090  001E4E  0E00               	movlw	0
  5091  001E50  6E80               	movwf	3968,c	;volatile
  5092  001E52  0004               	clrwdt		;# 
  5093                           
  5094                           ;Tomcat_V_driver.c: 25: TRISB = 0b00000110;
  5095  001E54  0E06               	movlw	6
  5096  001E56  6E93               	movwf	3987,c	;volatile
  5097                           
  5098                           ;Tomcat_V_driver.c: 26: ANSELB = 0b00000100;
  5099  001E58  0E04               	movlw	4
  5100  001E5A  010F               	movlb	15	; () banked
  5101  001E5C  010F               	movlb	15	; () banked
  5102  001E5E  6F39               	movwf	57,b	;volatile
  5103                           
  5104                           ;Tomcat_V_driver.c: 27: PORTB = 0b00000000;
  5105  001E60  0E00               	movlw	0
  5106  001E62  6E81               	movwf	3969,c	;volatile
  5107                           
  5108                           ;Tomcat_V_driver.c: 29: TRISC = 0b10010000;
  5109  001E64  0E90               	movlw	144
  5110  001E66  6E94               	movwf	3988,c	;volatile
  5111                           
  5112                           ;Tomcat_V_driver.c: 30: ANSELC = 0b00000000;
  5113  001E68  0E00               	movlw	0
  5114  001E6A  010F               	movlb	15	; () banked
  5115  001E6C  010F               	movlb	15	; () banked
  5116  001E6E  6F3A               	movwf	58,b	;volatile
  5117                           
  5118                           ;Tomcat_V_driver.c: 31: PORTC = 0b00000000;
  5119  001E70  0E00               	movlw	0
  5120  001E72  6E82               	movwf	3970,c	;volatile
  5121                           
  5122                           ;Tomcat_V_driver.c: 33: TRISD = 0b10110100;
  5123  001E74  0EB4               	movlw	180
  5124  001E76  6E95               	movwf	3989,c	;volatile
  5125                           
  5126                           ;Tomcat_V_driver.c: 34: ANSELD = 0b00000000;
  5127  001E78  0E00               	movlw	0
  5128  001E7A  010F               	movlb	15	; () banked
  5129  001E7C  010F               	movlb	15	; () banked
  5130  001E7E  6F3B               	movwf	59,b	;volatile
  5131                           
  5132                           ;Tomcat_V_driver.c: 35: PORTD = 0b00000000;
  5133  001E80  0E00               	movlw	0
  5134  001E82  6E83               	movwf	3971,c	;volatile
  5135                           
  5136                           ;Tomcat_V_driver.c: 37: TRISE = 0b11111000;
  5137  001E84  0EF8               	movlw	248
  5138  001E86  6E96               	movwf	3990,c	;volatile
  5139                           
  5140                           ;Tomcat_V_driver.c: 38: ANSELE = 0b00000000;
  5141  001E88  0E00               	movlw	0
  5142  001E8A  010F               	movlb	15	; () banked
  5143  001E8C  010F               	movlb	15	; () banked
  5144  001E8E  6F3C               	movwf	60,b	;volatile
  5145                           
  5146                           ;Tomcat_V_driver.c: 39: PORTE = 0b00000000;
  5147  001E90  0E00               	movlw	0
  5148  001E92  6E84               	movwf	3972,c	;volatile
  5149                           
  5150                           ;Tomcat_V_driver.c: 42: T0CON = 0b10000010;
  5151  001E94  0E82               	movlw	130
  5152  001E96  6ED5               	movwf	4053,c	;volatile
  5153                           
  5154                           ;Tomcat_V_driver.c: 43: T1CON = 0b00010011;
  5155  001E98  0E13               	movlw	19
  5156  001E9A  6ECD               	movwf	4045,c	;volatile
  5157                           
  5158                           ;Tomcat_V_driver.c: 45: T2CON = 0b00000110;
  5159  001E9C  0E06               	movlw	6
  5160  001E9E  6EBA               	movwf	4026,c	;volatile
  5161                           
  5162                           ;Tomcat_V_driver.c: 46: T4CON = 0b00000110;
  5163  001EA0  0E06               	movlw	6
  5164  001EA2  010F               	movlb	15	; () banked
  5165  001EA4  010F               	movlb	15	; () banked
  5166  001EA6  6F51               	movwf	81,b	;volatile
  5167                           
  5168                           ;Tomcat_V_driver.c: 49: CCP1CON = 0b00001100;
  5169  001EA8  0E0C               	movlw	12
  5170  001EAA  6EBD               	movwf	4029,c	;volatile
  5171                           
  5172                           ;Tomcat_V_driver.c: 50: CCP2CON = 0b00001100;
  5173  001EAC  0E0C               	movlw	12
  5174  001EAE  6E66               	movwf	3942,c	;volatile
  5175                           
  5176                           ;Tomcat_V_driver.c: 51: CCP3CON = 0b00001100;
  5177  001EB0  0E0C               	movlw	12
  5178  001EB2  010F               	movlb	15	; () banked
  5179  001EB4  010F               	movlb	15	; () banked
  5180  001EB6  6F5D               	movwf	93,b	;volatile
  5181                           
  5182                           ;Tomcat_V_driver.c: 52: CCP4CON = 0b00001111;
  5183  001EB8  0E0F               	movlw	15
  5184  001EBA  010F               	movlb	15	; () banked
  5185  001EBC  010F               	movlb	15	; () banked
  5186  001EBE  6F57               	movwf	87,b	;volatile
  5187                           
  5188                           ;Tomcat_V_driver.c: 54: ECCP1AS = 0;
  5189  001EC0  0E00               	movlw	0
  5190  001EC2  6EB6               	movwf	4022,c	;volatile
  5191                           
  5192                           ;Tomcat_V_driver.c: 55: ECCP2AS = 0;
  5193  001EC4  0E00               	movlw	0
  5194  001EC6  6E64               	movwf	3940,c	;volatile
  5195                           
  5196                           ;Tomcat_V_driver.c: 56: ECCP3AS = 0;
  5197  001EC8  0E00               	movlw	0
  5198  001ECA  010F               	movlb	15	; () banked
  5199  001ECC  010F               	movlb	15	; () banked
  5200  001ECE  6F5B               	movwf	91,b	;volatile
  5201                           
  5202                           ;Tomcat_V_driver.c: 59: PSTR1CON = 0b00000001;
  5203  001ED0  0E01               	movlw	1
  5204  001ED2  6EB9               	movwf	4025,c	;volatile
  5205                           
  5206                           ;Tomcat_V_driver.c: 60: PSTR2CON = 0b00000001;
  5207  001ED4  0E01               	movlw	1
  5208  001ED6  6E63               	movwf	3939,c	;volatile
  5209                           
  5210                           ;Tomcat_V_driver.c: 61: PSTR3CON = 0b00000001;
  5211  001ED8  0E01               	movlw	1
  5212  001EDA  010F               	movlb	15	; () banked
  5213  001EDC  010F               	movlb	15	; () banked
  5214  001EDE  6F5A               	movwf	90,b	;volatile
  5215  001EE0  0004               	clrwdt		;# 
  5216                           
  5217                           ;Tomcat_V_driver.c: 64: CCPTMRS0 = 0b00000001;
  5218  001EE2  0E01               	movlw	1
  5219  001EE4  010F               	movlb	15	; () banked
  5220  001EE6  010F               	movlb	15	; () banked
  5221  001EE8  6F49               	movwf	73,b	;volatile
  5222                           
  5223                           ;Tomcat_V_driver.c: 65: CCPTMRS1 = 0b00001001;
  5224  001EEA  0E09               	movlw	9
  5225  001EEC  010F               	movlb	15	; () banked
  5226  001EEE  010F               	movlb	15	; () banked
  5227  001EF0  6F48               	movwf	72,b	;volatile
  5228                           
  5229                           ; BSR set to: 15
  5230                           ;Tomcat_V_driver.c: 67: SSP1CON1 &=0xDF;
  5231  001EF2  9AC6               	bcf	4038,5,c	;volatile
  5232                           
  5233                           ; BSR set to: 15
  5234                           ;Tomcat_V_driver.c: 68: OpenI2C1(0b00001000, 0b10000000);
  5235  001EF4  6E1C               	movwf	??_Tomcat_Setup& (0+255),c
  5236  001EF6  0E80               	movlw	128
  5237  001EF8  6E16               	movwf	OpenI2C1@slew,c
  5238  001EFA  501C               	movf	??_Tomcat_Setup& (0+255),w,c
  5239  001EFC  0E08               	movlw	8
  5240  001EFE  ECC8  F014         	call	_OpenI2C1
  5241                           
  5242                           ;Tomcat_V_driver.c: 69: SSP1ADD = 49;
  5243  001F02  0E31               	movlw	49
  5244  001F04  6EC8               	movwf	4040,c	;volatile
  5245                           
  5246                           ;Tomcat_V_driver.c: 70: Open1USART(0b01111111 &
  5247                           ;Tomcat_V_driver.c: 71: 0b11111111 &
  5248                           ;Tomcat_V_driver.c: 72: 0b11111110 &
  5249                           ;Tomcat_V_driver.c: 73: 0b11111101 &
  5250                           ;Tomcat_V_driver.c: 74: 0b11111111 &
  5251                           ;Tomcat_V_driver.c: 75: 0b11111111, (unsigned char)(((float)20000000/(16.0*(float)9600))
      +                          +1));
  5252  001F06  0E00               	movlw	0
  5253  001F08  6E17               	movwf	Open1USART@spbrg+1,c
  5254  001F0A  0E83               	movlw	131
  5255  001F0C  6E16               	movwf	Open1USART@spbrg,c
  5256  001F0E  0E7C               	movlw	124
  5257  001F10  ECD6  F011         	call	_Open1USART
  5258  001F14  0004               	clrwdt		;# 
  5259  001F16  0012               	return	
  5260  001F18                     __end_of_Tomcat_Setup:
  5261                           	opt stack 0
  5262                           tblptru	equ	0xFF8
  5263                           tblptrh	equ	0xFF7
  5264                           tblptrl	equ	0xFF6
  5265                           tablat	equ	0xFF5
  5266                           prodh	equ	0xFF4
  5267                           prodl	equ	0xFF3
  5268                           intcon	equ	0xFF2
  5269                           postinc0	equ	0xFEE
  5270                           wreg	equ	0xFE8
  5271                           postinc1	equ	0xFE6
  5272                           postdec1	equ	0xFE5
  5273                           fsr1l	equ	0xFE1
  5274                           indf2	equ	0xFDF
  5275                           postinc2	equ	0xFDE
  5276                           postdec2	equ	0xFDD
  5277                           fsr2h	equ	0xFDA
  5278                           fsr2l	equ	0xFD9
  5279                           status	equ	0xFD8
  5280                           
  5281 ;; *************** function _OpenI2C1 *****************
  5282 ;; Defined at:
  5283 ;;		line 29 in file "C:\Program Files (x86)\Microchip\xc8\v1.30\sources\pic18\plib\i2c\i2c1open.c"
  5284 ;; Parameters:    Size  Location     Type
  5285 ;;  sync_mode       1    wreg     unsigned char 
  5286 ;;  slew            1   21[COMRAM] unsigned char 
  5287 ;; Auto vars:     Size  Location     Type
  5288 ;;  sync_mode       1   22[COMRAM] unsigned char 
  5289 ;; Return value:  Size  Location     Type
  5290 ;;		None               void
  5291 ;; Registers used:
  5292 ;;		wreg, status,2, status,0
  5293 ;; Tracked objects:
  5294 ;;		On entry : 0/0
  5295 ;;		On exit  : 0/0
  5296 ;;		Unchanged: 0/0
  5297 ;; Data sizes:     COMRAM   BANK0   BANK1   BANK2   BANK3   BANK4   BANK5
  5298 ;;      Params:         1       0       0       0       0       0       0
  5299 ;;      Locals:         1       0       0       0       0       0       0
  5300 ;;      Temps:          0       0       0       0       0       0       0
  5301 ;;      Totals:         2       0       0       0       0       0       0
  5302 ;;Total ram usage:        2 bytes
  5303 ;; Hardware stack levels used:    1
  5304 ;; Hardware stack levels required when called:    3
  5305 ;; This function calls:
  5306 ;;		Nothing
  5307 ;; This function is called by:
  5308 ;;		_Tomcat_Setup
  5309 ;; This function uses a non-reentrant model
  5310 ;;
  5311                           
  5312                           	psect	text25
  5313  002990                     __ptext25:
  5314                           	opt stack 0
  5315  002990                     _OpenI2C1:
  5316                           	opt stack 26
  5317                           
  5318                           ;incstack = 0
  5319                           ;OpenI2C1@sync_mode stored from wreg
  5320  002990  CFE8 F017          	movff	wreg,OpenI2C1@sync_mode
  5321  002994  0E3F               	movlw	63
  5322  002996  16C7               	andwf	4039,f,c	;volatile
  5323  002998  0E00               	movlw	0
  5324  00299A  6EC6               	movwf	4038,c	;volatile
  5325  00299C  0E00               	movlw	0
  5326  00299E  6EC5               	movwf	4037,c	;volatile
  5327  0029A0  5017               	movf	OpenI2C1@sync_mode,w,c
  5328  0029A2  12C6               	iorwf	4038,f,c	;volatile
  5329  0029A4  5016               	movf	OpenI2C1@slew,w,c
  5330  0029A6  12C7               	iorwf	4039,f,c	;volatile
  5331  0029A8  8AC6               	bsf	4038,5,c	;volatile
  5332  0029AA  0012               	return	
  5333  0029AC                     __end_of_OpenI2C1:
  5334                           	opt stack 0
  5335                           tblptru	equ	0xFF8
  5336                           tblptrh	equ	0xFF7
  5337                           tblptrl	equ	0xFF6
  5338                           tablat	equ	0xFF5
  5339                           prodh	equ	0xFF4
  5340                           prodl	equ	0xFF3
  5341                           intcon	equ	0xFF2
  5342                           postinc0	equ	0xFEE
  5343                           wreg	equ	0xFE8
  5344                           postinc1	equ	0xFE6
  5345                           postdec1	equ	0xFE5
  5346                           fsr1l	equ	0xFE1
  5347                           indf2	equ	0xFDF
  5348                           postinc2	equ	0xFDE
  5349                           postdec2	equ	0xFDD
  5350                           fsr2h	equ	0xFDA
  5351                           fsr2l	equ	0xFD9
  5352                           status	equ	0xFD8
  5353                           
  5354 ;; *************** function _Open1USART *****************
  5355 ;; Defined at:
  5356 ;;		line 124 in file "C:\Program Files (x86)\Microchip\xc8\v1.30\sources\pic18\plib\USART\u1open.c"
  5357 ;; Parameters:    Size  Location     Type
  5358 ;;  config          1    wreg     unsigned char 
  5359 ;;  spbrg           2   21[COMRAM] unsigned int 
  5360 ;; Auto vars:     Size  Location     Type
  5361 ;;  config          1   26[COMRAM] unsigned char 
  5362 ;; Return value:  Size  Location     Type
  5363 ;;		None               void
  5364 ;; Registers used:
  5365 ;;		wreg, status,2
  5366 ;; Tracked objects:
  5367 ;;		On entry : 0/0
  5368 ;;		On exit  : 0/0
  5369 ;;		Unchanged: 0/0
  5370 ;; Data sizes:     COMRAM   BANK0   BANK1   BANK2   BANK3   BANK4   BANK5
  5371 ;;      Params:         2       0       0       0       0       0       0
  5372 ;;      Locals:         1       0       0       0       0       0       0
  5373 ;;      Temps:          3       0       0       0       0       0       0
  5374 ;;      Totals:         6       0       0       0       0       0       0
  5375 ;;Total ram usage:        6 bytes
  5376 ;; Hardware stack levels used:    1
  5377 ;; Hardware stack levels required when called:    3
  5378 ;; This function calls:
  5379 ;;		Nothing
  5380 ;; This function is called by:
  5381 ;;		_Tomcat_Setup
  5382 ;; This function uses a non-reentrant model
  5383 ;;
  5384                           
  5385                           	psect	text26
  5386  0023AC                     __ptext26:
  5387                           	opt stack 0
  5388  0023AC                     _Open1USART:
  5389                           	opt stack 26
  5390                           
  5391                           ;incstack = 0
  5392                           ;Open1USART@config stored from wreg
  5393  0023AC  CFE8 F01B          	movff	wreg,Open1USART@config
  5394  0023B0  0E00               	movlw	0
  5395  0023B2  6EAC               	movwf	4012,c	;volatile
  5396  0023B4  0E00               	movlw	0
  5397  0023B6  6EAB               	movwf	4011,c	;volatile
  5398  0023B8  B01B               	btfsc	Open1USART@config,0,c
  5399  0023BA  88AC               	bsf	4012,4,c	;volatile
  5400  0023BC  A21B               	btfss	Open1USART@config,1,c
  5401  0023BE  D002               	goto	l5140
  5402  0023C0  8CAC               	bsf	4012,6,c	;volatile
  5403  0023C2  8CAB               	bsf	4011,6,c	;volatile
  5404  0023C4                     l5140:
  5405  0023C4  B41B               	btfsc	Open1USART@config,2,c
  5406  0023C6  8EAC               	bsf	4012,7,c	;volatile
  5407  0023C8  A61B               	btfss	Open1USART@config,3,c
  5408  0023CA  D002               	goto	l679
  5409  0023CC  88AB               	bsf	4011,4,c	;volatile
  5410  0023CE  D001               	goto	l5148
  5411  0023D0                     l679:
  5412  0023D0  8AAB               	bsf	4011,5,c	;volatile
  5413  0023D2                     l5148:
  5414  0023D2  B81B               	btfsc	Open1USART@config,4,c
  5415  0023D4  84AC               	bsf	4012,2,c	;volatile
  5416  0023D6  BA1B               	btfsc	Open1USART@config,5,c
  5417  0023D8  86AB               	bsf	4011,3,c	;volatile
  5418  0023DA  AC1B               	btfss	Open1USART@config,6,c
  5419  0023DC  D002               	goto	l683
  5420  0023DE  8A9D               	bsf	3997,5,c	;volatile
  5421  0023E0  D001               	goto	l5160
  5422  0023E2                     l683:
  5423  0023E2  9A9D               	bcf	3997,5,c	;volatile
  5424  0023E4                     l5160:
  5425  0023E4  AE1B               	btfss	Open1USART@config,7,c
  5426  0023E6  D002               	goto	l685
  5427  0023E8  889D               	bsf	3997,4,c	;volatile
  5428  0023EA  D001               	goto	l686
  5429  0023EC                     l685:
  5430  0023EC  989D               	bcf	3997,4,c	;volatile
  5431  0023EE                     l686:
  5432  0023EE  C016  FFAF         	movff	Open1USART@spbrg,4015	;volatile
  5433  0023F2  C017  F018         	movff	Open1USART@spbrg+1,??_Open1USART
  5434  0023F6  C018  F019         	movff	??_Open1USART,??_Open1USART+1
  5435  0023FA  6A1A               	clrf	(??_Open1USART+2)& (0+255),c
  5436  0023FC  5019               	movf	??_Open1USART+1,w,c
  5437  0023FE  6EB0               	movwf	4016,c	;volatile
  5438  002400  8AAC               	bsf	4012,5,c	;volatile
  5439  002402  8EAB               	bsf	4011,7,c	;volatile
  5440  002404  0012               	return	
  5441  002406                     __end_of_Open1USART:
  5442                           	opt stack 0
  5443                           tblptru	equ	0xFF8
  5444                           tblptrh	equ	0xFF7
  5445                           tblptrl	equ	0xFF6
  5446                           tablat	equ	0xFF5
  5447                           prodh	equ	0xFF4
  5448                           prodl	equ	0xFF3
  5449                           intcon	equ	0xFF2
  5450                           postinc0	equ	0xFEE
  5451                           wreg	equ	0xFE8
  5452                           postinc1	equ	0xFE6
  5453                           postdec1	equ	0xFE5
  5454                           fsr1l	equ	0xFE1
  5455                           indf2	equ	0xFDF
  5456                           postinc2	equ	0xFDE
  5457                           postdec2	equ	0xFDD
  5458                           fsr2h	equ	0xFDA
  5459                           fsr2l	equ	0xFD9
  5460                           status	equ	0xFD8
  5461                           
  5462 ;; *************** function _Tomcat_Press_Int *****************
  5463 ;; Defined at:
  5464 ;;		line 219 in file "Tomcat_V_driver.c"
  5465 ;; Parameters:    Size  Location     Type
  5466 ;;		None
  5467 ;; Auto vars:     Size  Location     Type
  5468 ;;  temp            3   50[BANK0 ] float 
  5469 ;;  press           2   48[BANK0 ] int 
  5470 ;; Return value:  Size  Location     Type
  5471 ;;                  2   42[BANK0 ] int 
  5472 ;; Registers used:
  5473 ;;		wreg, status,2, status,0, cstack
  5474 ;; Tracked objects:
  5475 ;;		On entry : 0/0
  5476 ;;		On exit  : 0/0
  5477 ;;		Unchanged: 0/0
  5478 ;; Data sizes:     COMRAM   BANK0   BANK1   BANK2   BANK3   BANK4   BANK5
  5479 ;;      Params:         0       2       0       0       0       0       0
  5480 ;;      Locals:         0       5       0       0       0       0       0
  5481 ;;      Temps:          0       4       0       0       0       0       0
  5482 ;;      Totals:         0      11       0       0       0       0       0
  5483 ;;Total ram usage:       11 bytes
  5484 ;; Hardware stack levels used:    1
  5485 ;; Hardware stack levels required when called:    5
  5486 ;; This function calls:
  5487 ;;		___ftadd
  5488 ;;		___ftmul
  5489 ;;		___fttol
  5490 ;;		___lwtoft
  5491 ;;		_analogRead
  5492 ;; This function is called by:
  5493 ;;		_main
  5494 ;; This function uses a non-reentrant model
  5495 ;;
  5496                           
  5497                           	psect	text27
  5498  001C30                     __ptext27:
  5499                           	opt stack 0
  5500  001C30                     _Tomcat_Press_Int:
  5501                           	opt stack 25
  5502                           
  5503                           ;Tomcat_V_driver.c: 220: int press = 0;
  5504                           
  5505                           ;incstack = 0
  5506  001C30  0E00               	movlw	0
  5507  001C32  0100               	movlb	0	; () banked
  5508  001C34  0100               	movlb	0	; () banked
  5509  001C36  6F91               	movwf	(Tomcat_Press_Int@press+1)& (0+255),b
  5510  001C38  0E00               	movlw	0
  5511  001C3A  0100               	movlb	0	; () banked
  5512  001C3C  6F90               	movwf	Tomcat_Press_Int@press& (0+255),b
  5513                           
  5514                           ;Tomcat_V_driver.c: 221: float temp = 0.0;
  5515  001C3E  0E00               	movlw	0
  5516  001C40  0100               	movlb	0	; () banked
  5517  001C42  0100               	movlb	0	; () banked
  5518  001C44  6F92               	movwf	Tomcat_Press_Int@temp& (0+255),b
  5519  001C46  0E00               	movlw	0
  5520  001C48  0100               	movlb	0	; () banked
  5521  001C4A  0100               	movlb	0	; () banked
  5522  001C4C  6F93               	movwf	(Tomcat_Press_Int@temp+1)& (0+255),b
  5523  001C4E  0E00               	movlw	0
  5524  001C50  0100               	movlb	0	; () banked
  5525  001C52  0100               	movlb	0	; () banked
  5526  001C54  6F94               	movwf	(Tomcat_Press_Int@temp+2)& (0+255),b
  5527                           
  5528                           ; BSR set to: 0
  5529                           ;Tomcat_V_driver.c: 222: temp = analogRead(2)*0.0048 * 0.2;
  5530  001C56  0E02               	movlw	2
  5531  001C58  EC09  F014         	call	_analogRead
  5532  001C5C  C016  F01F         	movff	?_analogRead,___lwtoft@c
  5533  001C60  C017  F020         	movff	?_analogRead+1,___lwtoft@c+1
  5534  001C64  EC69  F014         	call	___lwtoft	;wreg free
  5535  001C68  C01F  F066         	movff	?___lwtoft,___ftmul@f1
  5536  001C6C  C020  F067         	movff	?___lwtoft+1,___ftmul@f1+1
  5537  001C70  C021  F068         	movff	?___lwtoft+2,___ftmul@f1+2
  5538  001C74  0EA9               	movlw	169
  5539  001C76  0100               	movlb	0	; () banked
  5540  001C78  0100               	movlb	0	; () banked
  5541  001C7A  6F69               	movwf	___ftmul@f2& (0+255),b
  5542  001C7C  0E7B               	movlw	123
  5543  001C7E  0100               	movlb	0	; () banked
  5544  001C80  0100               	movlb	0	; () banked
  5545  001C82  6F6A               	movwf	(___ftmul@f2+1)& (0+255),b
  5546  001C84  0E3A               	movlw	58
  5547  001C86  0100               	movlb	0	; () banked
  5548  001C88  0100               	movlb	0	; () banked
  5549  001C8A  6F6B               	movwf	(___ftmul@f2+2)& (0+255),b
  5550  001C8C  ECC2  F008         	call	___ftmul	;wreg free
  5551  001C90  C066  F092         	movff	?___ftmul,Tomcat_Press_Int@temp
  5552  001C94  C067  F093         	movff	?___ftmul+1,Tomcat_Press_Int@temp+1
  5553  001C98  C068  F094         	movff	?___ftmul+2,Tomcat_Press_Int@temp+2
  5554                           
  5555                           ;Tomcat_V_driver.c: 223: temp = temp - 0.04;
  5556  001C9C  C092  F07B         	movff	Tomcat_Press_Int@temp,___ftadd@f1
  5557  001CA0  C093  F07C         	movff	Tomcat_Press_Int@temp+1,___ftadd@f1+1
  5558  001CA4  C094  F07D         	movff	Tomcat_Press_Int@temp+2,___ftadd@f1+2
  5559  001CA8  0ED7               	movlw	215
  5560  001CAA  0100               	movlb	0	; () banked
  5561  001CAC  0100               	movlb	0	; () banked
  5562  001CAE  6F7E               	movwf	___ftadd@f2& (0+255),b
  5563  001CB0  0E23               	movlw	35
  5564  001CB2  0100               	movlb	0	; () banked
  5565  001CB4  0100               	movlb	0	; () banked
  5566  001CB6  6F7F               	movwf	(___ftadd@f2+1)& (0+255),b
  5567  001CB8  0EBD               	movlw	189
  5568  001CBA  0100               	movlb	0	; () banked
  5569  001CBC  0100               	movlb	0	; () banked
  5570  001CBE  6F80               	movwf	(___ftadd@f2+2)& (0+255),b
  5571  001CC0  EC0C  F006         	call	___ftadd	;wreg free
  5572  001CC4  C07B  F092         	movff	?___ftadd,Tomcat_Press_Int@temp
  5573  001CC8  C07C  F093         	movff	?___ftadd+1,Tomcat_Press_Int@temp+1
  5574  001CCC  C07D  F094         	movff	?___ftadd+2,Tomcat_Press_Int@temp+2
  5575                           
  5576                           ;Tomcat_V_driver.c: 224: temp = temp * 777.7;
  5577  001CD0  C092  F066         	movff	Tomcat_Press_Int@temp,___ftmul@f1
  5578  001CD4  C093  F067         	movff	Tomcat_Press_Int@temp+1,___ftmul@f1+1
  5579  001CD8  C094  F068         	movff	Tomcat_Press_Int@temp+2,___ftmul@f1+2
  5580  001CDC  0E6D               	movlw	109
  5581  001CDE  0100               	movlb	0	; () banked
  5582  001CE0  0100               	movlb	0	; () banked
  5583  001CE2  6F69               	movwf	___ftmul@f2& (0+255),b
  5584  001CE4  0E42               	movlw	66
  5585  001CE6  0100               	movlb	0	; () banked
  5586  001CE8  0100               	movlb	0	; () banked
  5587  001CEA  6F6A               	movwf	(___ftmul@f2+1)& (0+255),b
  5588  001CEC  0E44               	movlw	68
  5589  001CEE  0100               	movlb	0	; () banked
  5590  001CF0  0100               	movlb	0	; () banked
  5591  001CF2  6F6B               	movwf	(___ftmul@f2+2)& (0+255),b
  5592  001CF4  ECC2  F008         	call	___ftmul	;wreg free
  5593  001CF8  C066  F092         	movff	?___ftmul,Tomcat_Press_Int@temp
  5594  001CFC  C067  F093         	movff	?___ftmul+1,Tomcat_Press_Int@temp+1
  5595  001D00  C068  F094         	movff	?___ftmul+2,Tomcat_Press_Int@temp+2
  5596                           
  5597                           ;Tomcat_V_driver.c: 225: press = (int)temp;
  5598  001D04  C092  F07B         	movff	Tomcat_Press_Int@temp,___fttol@f1
  5599  001D08  C093  F07C         	movff	Tomcat_Press_Int@temp+1,___fttol@f1+1
  5600  001D0C  C094  F07D         	movff	Tomcat_Press_Int@temp+2,___fttol@f1+2
  5601  001D10  ECAE  F009         	call	___fttol	;wreg free
  5602  001D14  C07B  F08C         	movff	?___fttol,??_Tomcat_Press_Int
  5603  001D18  C07C  F08D         	movff	?___fttol+1,??_Tomcat_Press_Int+1
  5604  001D1C  C07D  F08E         	movff	?___fttol+2,??_Tomcat_Press_Int+2
  5605  001D20  C07E  F08F         	movff	?___fttol+3,??_Tomcat_Press_Int+3
  5606  001D24  C08C  F090         	movff	??_Tomcat_Press_Int,Tomcat_Press_Int@press
  5607  001D28  C08D  F091         	movff	??_Tomcat_Press_Int+1,Tomcat_Press_Int@press+1
  5608                           
  5609                           ;Tomcat_V_driver.c: 226: return press;
  5610  001D2C  C090  F08A         	movff	Tomcat_Press_Int@press,?_Tomcat_Press_Int
  5611  001D30  C091  F08B         	movff	Tomcat_Press_Int@press+1,?_Tomcat_Press_Int+1
  5612  001D34  0012               	return	
  5613  001D36                     __end_of_Tomcat_Press_Int:
  5614                           	opt stack 0
  5615                           tblptru	equ	0xFF8
  5616                           tblptrh	equ	0xFF7
  5617                           tblptrl	equ	0xFF6
  5618                           tablat	equ	0xFF5
  5619                           prodh	equ	0xFF4
  5620                           prodl	equ	0xFF3
  5621                           intcon	equ	0xFF2
  5622                           postinc0	equ	0xFEE
  5623                           wreg	equ	0xFE8
  5624                           postinc1	equ	0xFE6
  5625                           postdec1	equ	0xFE5
  5626                           fsr1l	equ	0xFE1
  5627                           indf2	equ	0xFDF
  5628                           postinc2	equ	0xFDE
  5629                           postdec2	equ	0xFDD
  5630                           fsr2h	equ	0xFDA
  5631                           fsr2l	equ	0xFD9
  5632                           status	equ	0xFD8
  5633                           
  5634 ;; *************** function _Tomcat_Depth *****************
  5635 ;; Defined at:
  5636 ;;		line 208 in file "Tomcat_V_driver.c"
  5637 ;; Parameters:    Size  Location     Type
  5638 ;;		None
  5639 ;; Auto vars:     Size  Location     Type
  5640 ;;  tempPress       3   50[BANK0 ] float 
  5641 ;;  depth           2   48[BANK0 ] int 
  5642 ;; Return value:  Size  Location     Type
  5643 ;;                  2   42[BANK0 ] int 
  5644 ;; Registers used:
  5645 ;;		wreg, status,2, status,0, cstack
  5646 ;; Tracked objects:
  5647 ;;		On entry : 0/0
  5648 ;;		On exit  : 0/0
  5649 ;;		Unchanged: 0/0
  5650 ;; Data sizes:     COMRAM   BANK0   BANK1   BANK2   BANK3   BANK4   BANK5
  5651 ;;      Params:         0       2       0       0       0       0       0
  5652 ;;      Locals:         0       5       0       0       0       0       0
  5653 ;;      Temps:          0       4       0       0       0       0       0
  5654 ;;      Totals:         0      11       0       0       0       0       0
  5655 ;;Total ram usage:       11 bytes
  5656 ;; Hardware stack levels used:    1
  5657 ;; Hardware stack levels required when called:    5
  5658 ;; This function calls:
  5659 ;;		___ftadd
  5660 ;;		___ftdiv
  5661 ;;		___ftmul
  5662 ;;		___fttol
  5663 ;;		___lwtoft
  5664 ;;		_analogRead
  5665 ;; This function is called by:
  5666 ;;		_main
  5667 ;; This function uses a non-reentrant model
  5668 ;;
  5669                           
  5670                           	psect	text28
  5671  001B28                     __ptext28:
  5672                           	opt stack 0
  5673  001B28                     _Tomcat_Depth:
  5674                           	opt stack 25
  5675                           
  5676                           ;Tomcat_V_driver.c: 209: float tempPress;
  5677                           ;Tomcat_V_driver.c: 210: int depth;
  5678                           ;Tomcat_V_driver.c: 211: tempPress = analogRead(3);
  5679                           
  5680                           ;incstack = 0
  5681  001B28  0E03               	movlw	3
  5682  001B2A  EC09  F014         	call	_analogRead
  5683  001B2E  C016  F01F         	movff	?_analogRead,___lwtoft@c
  5684  001B32  C017  F020         	movff	?_analogRead+1,___lwtoft@c+1
  5685  001B36  EC69  F014         	call	___lwtoft	;wreg free
  5686  001B3A  C01F  F092         	movff	?___lwtoft,Tomcat_Depth@tempPress
  5687  001B3E  C020  F093         	movff	?___lwtoft+1,Tomcat_Depth@tempPress+1
  5688  001B42  C021  F094         	movff	?___lwtoft+2,Tomcat_Depth@tempPress+2
  5689                           
  5690                           ;Tomcat_V_driver.c: 212: tempPress = tempPress - (1024.0 / 5.0);
  5691  001B46  C092  F07B         	movff	Tomcat_Depth@tempPress,___ftadd@f1
  5692  001B4A  C093  F07C         	movff	Tomcat_Depth@tempPress+1,___ftadd@f1+1
  5693  001B4E  C094  F07D         	movff	Tomcat_Depth@tempPress+2,___ftadd@f1+2
  5694  001B52  0ECD               	movlw	205
  5695  001B54  0100               	movlb	0	; () banked
  5696  001B56  0100               	movlb	0	; () banked
  5697  001B58  6F7E               	movwf	___ftadd@f2& (0+255),b
  5698  001B5A  0E4C               	movlw	76
  5699  001B5C  0100               	movlb	0	; () banked
  5700  001B5E  0100               	movlb	0	; () banked
  5701  001B60  6F7F               	movwf	(___ftadd@f2+1)& (0+255),b
  5702  001B62  0EC3               	movlw	195
  5703  001B64  0100               	movlb	0	; () banked
  5704  001B66  0100               	movlb	0	; () banked
  5705  001B68  6F80               	movwf	(___ftadd@f2+2)& (0+255),b
  5706  001B6A  EC0C  F006         	call	___ftadd	;wreg free
  5707  001B6E  C07B  F092         	movff	?___ftadd,Tomcat_Depth@tempPress
  5708  001B72  C07C  F093         	movff	?___ftadd+1,Tomcat_Depth@tempPress+1
  5709  001B76  C07D  F094         	movff	?___ftadd+2,Tomcat_Depth@tempPress+2
  5710                           
  5711                           ;Tomcat_V_driver.c: 213: tempPress = tempPress * 500.0 / 820.0;
  5712  001B7A  0E00               	movlw	0
  5713  001B7C  0100               	movlb	0	; () banked
  5714  001B7E  0100               	movlb	0	; () banked
  5715  001B80  6F69               	movwf	___ftmul@f2& (0+255),b
  5716  001B82  0EFA               	movlw	250
  5717  001B84  0100               	movlb	0	; () banked
  5718  001B86  0100               	movlb	0	; () banked
  5719  001B88  6F6A               	movwf	(___ftmul@f2+1)& (0+255),b
  5720  001B8A  0E43               	movlw	67
  5721  001B8C  0100               	movlb	0	; () banked
  5722  001B8E  0100               	movlb	0	; () banked
  5723  001B90  6F6B               	movwf	(___ftmul@f2+2)& (0+255),b
  5724  001B92  C092  F066         	movff	Tomcat_Depth@tempPress,___ftmul@f1
  5725  001B96  C093  F067         	movff	Tomcat_Depth@tempPress+1,___ftmul@f1+1
  5726  001B9A  C094  F068         	movff	Tomcat_Depth@tempPress+2,___ftmul@f1+2
  5727  001B9E  ECC2  F008         	call	___ftmul	;wreg free
  5728  001BA2  C066  F060         	movff	?___ftmul,___ftdiv@f1
  5729  001BA6  C067  F061         	movff	?___ftmul+1,___ftdiv@f1+1
  5730  001BAA  C068  F062         	movff	?___ftmul+2,___ftdiv@f1+2
  5731  001BAE  0E00               	movlw	0
  5732  001BB0  0100               	movlb	0	; () banked
  5733  001BB2  0100               	movlb	0	; () banked
  5734  001BB4  6F63               	movwf	___ftdiv@f2& (0+255),b
  5735  001BB6  0E4D               	movlw	77
  5736  001BB8  0100               	movlb	0	; () banked
  5737  001BBA  0100               	movlb	0	; () banked
  5738  001BBC  6F64               	movwf	(___ftdiv@f2+1)& (0+255),b
  5739  001BBE  0E44               	movlw	68
  5740  001BC0  0100               	movlb	0	; () banked
  5741  001BC2  0100               	movlb	0	; () banked
  5742  001BC4  6F65               	movwf	(___ftdiv@f2+2)& (0+255),b
  5743  001BC6  ECE3  F00C         	call	___ftdiv	;wreg free
  5744  001BCA  C060  F092         	movff	?___ftdiv,Tomcat_Depth@tempPress
  5745  001BCE  C061  F093         	movff	?___ftdiv+1,Tomcat_Depth@tempPress+1
  5746  001BD2  C062  F094         	movff	?___ftdiv+2,Tomcat_Depth@tempPress+2
  5747                           
  5748                           ;Tomcat_V_driver.c: 214: depth = (int) (tempPress * 2.31);
  5749  001BD6  0ED7               	movlw	215
  5750  001BD8  0100               	movlb	0	; () banked
  5751  001BDA  0100               	movlb	0	; () banked
  5752  001BDC  6F69               	movwf	___ftmul@f2& (0+255),b
  5753  001BDE  0E13               	movlw	19
  5754  001BE0  0100               	movlb	0	; () banked
  5755  001BE2  0100               	movlb	0	; () banked
  5756  001BE4  6F6A               	movwf	(___ftmul@f2+1)& (0+255),b
  5757  001BE6  0E40               	movlw	64
  5758  001BE8  0100               	movlb	0	; () banked
  5759  001BEA  0100               	movlb	0	; () banked
  5760  001BEC  6F6B               	movwf	(___ftmul@f2+2)& (0+255),b
  5761  001BEE  C092  F066         	movff	Tomcat_Depth@tempPress,___ftmul@f1
  5762  001BF2  C093  F067         	movff	Tomcat_Depth@tempPress+1,___ftmul@f1+1
  5763  001BF6  C094  F068         	movff	Tomcat_Depth@tempPress+2,___ftmul@f1+2
  5764  001BFA  ECC2  F008         	call	___ftmul	;wreg free
  5765  001BFE  C066  F07B         	movff	?___ftmul,___fttol@f1
  5766  001C02  C067  F07C         	movff	?___ftmul+1,___fttol@f1+1
  5767  001C06  C068  F07D         	movff	?___ftmul+2,___fttol@f1+2
  5768  001C0A  ECAE  F009         	call	___fttol	;wreg free
  5769  001C0E  C07B  F08C         	movff	?___fttol,??_Tomcat_Depth
  5770  001C12  C07C  F08D         	movff	?___fttol+1,??_Tomcat_Depth+1
  5771  001C16  C07D  F08E         	movff	?___fttol+2,??_Tomcat_Depth+2
  5772  001C1A  C07E  F08F         	movff	?___fttol+3,??_Tomcat_Depth+3
  5773  001C1E  C08C  F090         	movff	??_Tomcat_Depth,Tomcat_Depth@depth
  5774  001C22  C08D  F091         	movff	??_Tomcat_Depth+1,Tomcat_Depth@depth+1
  5775                           
  5776                           ;Tomcat_V_driver.c: 215: return depth;
  5777  001C26  C090  F08A         	movff	Tomcat_Depth@depth,?_Tomcat_Depth
  5778  001C2A  C091  F08B         	movff	Tomcat_Depth@depth+1,?_Tomcat_Depth+1
  5779  001C2E  0012               	return	
  5780  001C30                     __end_of_Tomcat_Depth:
  5781                           	opt stack 0
  5782                           tblptru	equ	0xFF8
  5783                           tblptrh	equ	0xFF7
  5784                           tblptrl	equ	0xFF6
  5785                           tablat	equ	0xFF5
  5786                           prodh	equ	0xFF4
  5787                           prodl	equ	0xFF3
  5788                           intcon	equ	0xFF2
  5789                           postinc0	equ	0xFEE
  5790                           wreg	equ	0xFE8
  5791                           postinc1	equ	0xFE6
  5792                           postdec1	equ	0xFE5
  5793                           fsr1l	equ	0xFE1
  5794                           indf2	equ	0xFDF
  5795                           postinc2	equ	0xFDE
  5796                           postdec2	equ	0xFDD
  5797                           fsr2h	equ	0xFDA
  5798                           fsr2l	equ	0xFD9
  5799                           status	equ	0xFD8
  5800                           
  5801 ;; *************** function _analogRead *****************
  5802 ;; Defined at:
  5803 ;;		line 317 in file "Tomcat_V_driver.c"
  5804 ;; Parameters:    Size  Location     Type
  5805 ;;  channel         1    wreg     unsigned char 
  5806 ;; Auto vars:     Size  Location     Type
  5807 ;;  channel         1   27[COMRAM] unsigned char 
  5808 ;;  num             2   28[COMRAM] unsigned int 
  5809 ;; Return value:  Size  Location     Type
  5810 ;;                  2   21[COMRAM] unsigned int 
  5811 ;; Registers used:
  5812 ;;		wreg, status,2, status,0
  5813 ;; Tracked objects:
  5814 ;;		On entry : 0/0
  5815 ;;		On exit  : 0/0
  5816 ;;		Unchanged: 0/0
  5817 ;; Data sizes:     COMRAM   BANK0   BANK1   BANK2   BANK3   BANK4   BANK5
  5818 ;;      Params:         2       0       0       0       0       0       0
  5819 ;;      Locals:         6       0       0       0       0       0       0
  5820 ;;      Temps:          1       0       0       0       0       0       0
  5821 ;;      Totals:         9       0       0       0       0       0       0
  5822 ;;Total ram usage:        9 bytes
  5823 ;; Hardware stack levels used:    1
  5824 ;; Hardware stack levels required when called:    3
  5825 ;; This function calls:
  5826 ;;		Nothing
  5827 ;; This function is called by:
  5828 ;;		_main
  5829 ;;		_Tomcat_Depth
  5830 ;;		_Tomcat_Press_Int
  5831 ;;		_Tomcat_Temp
  5832 ;;		_Tomcat_Temp_Ex
  5833 ;;		_Tomcat_Camera
  5834 ;; This function uses a non-reentrant model
  5835 ;;
  5836                           
  5837                           	psect	text29
  5838  002812                     __ptext29:
  5839                           	opt stack 0
  5840  002812                     _analogRead:
  5841                           	opt stack 27
  5842                           
  5843                           ;incstack = 0
  5844                           ;analogRead@channel stored from wreg
  5845  002812  CFE8 F01C          	movff	wreg,analogRead@channel
  5846                           
  5847                           ;Tomcat_V_driver.c: 318: unsigned int num = 0;
  5848  002816  0E00               	movlw	0
  5849  002818  6E1E               	movwf	analogRead@num+1,c
  5850  00281A  0E00               	movlw	0
  5851  00281C  6E1D               	movwf	analogRead@num,c
  5852                           
  5853                           ;Tomcat_V_driver.c: 319: ADCON0bits.CHS = channel;
  5854  00281E  C01C  F018         	movff	analogRead@channel,??_analogRead
  5855  002822  4618               	rlncf	??_analogRead,f,c
  5856  002824  4618               	rlncf	??_analogRead,f,c
  5857  002826  50C2               	movf	4034,w,c	;volatile
  5858  002828  1818               	xorwf	??_analogRead,w,c
  5859  00282A  0B83               	andlw	-125
  5860  00282C  1818               	xorwf	??_analogRead,w,c
  5861  00282E  6EC2               	movwf	4034,c	;volatile
  5862                           
  5863                           ;Tomcat_V_driver.c: 320: ADCON0bits.GO = 1;
  5864  002830  82C2               	bsf	4034,1,c	;volatile
  5865  002832                     l600:
  5866  002832  B2C2               	btfsc	4034,1,c	;volatile
  5867  002834  D7FE               	goto	l600
  5868                           
  5869                           ;Tomcat_V_driver.c: 322: num = ADRES;
  5870  002836  CFC3 F01D          	movff	4035,analogRead@num	;volatile
  5871  00283A  CFC4 F01E          	movff	4036,analogRead@num+1	;volatile
  5872                           
  5873                           ;Tomcat_V_driver.c: 323: return (num);
  5874  00283E  C01D  F016         	movff	analogRead@num,?_analogRead
  5875  002842  C01E  F017         	movff	analogRead@num+1,?_analogRead+1
  5876  002846  0012               	return	
  5877  002848                     __end_of_analogRead:
  5878                           	opt stack 0
  5879                           tblptru	equ	0xFF8
  5880                           tblptrh	equ	0xFF7
  5881                           tblptrl	equ	0xFF6
  5882                           tablat	equ	0xFF5
  5883                           prodh	equ	0xFF4
  5884                           prodl	equ	0xFF3
  5885                           intcon	equ	0xFF2
  5886                           postinc0	equ	0xFEE
  5887                           wreg	equ	0xFE8
  5888                           postinc1	equ	0xFE6
  5889                           postdec1	equ	0xFE5
  5890                           fsr1l	equ	0xFE1
  5891                           indf2	equ	0xFDF
  5892                           postinc2	equ	0xFDE
  5893                           postdec2	equ	0xFDD
  5894                           fsr2h	equ	0xFDA
  5895                           fsr2l	equ	0xFD9
  5896                           status	equ	0xFD8
  5897                           
  5898 ;; *************** function ___lwtoft *****************
  5899 ;; Defined at:
  5900 ;;		line 28 in file "C:\Program Files (x86)\Microchip\xc8\v1.30\sources\common\lwtoft.c"
  5901 ;; Parameters:    Size  Location     Type
  5902 ;;  c               2   30[COMRAM] unsigned int 
  5903 ;; Auto vars:     Size  Location     Type
  5904 ;;		None
  5905 ;; Return value:  Size  Location     Type
  5906 ;;                  3   30[COMRAM] float 
  5907 ;; Registers used:
  5908 ;;		wreg, status,2, status,0, cstack
  5909 ;; Tracked objects:
  5910 ;;		On entry : 0/0
  5911 ;;		On exit  : 0/0
  5912 ;;		Unchanged: 0/0
  5913 ;; Data sizes:     COMRAM   BANK0   BANK1   BANK2   BANK3   BANK4   BANK5
  5914 ;;      Params:         3       0       0       0       0       0       0
  5915 ;;      Locals:         0       0       0       0       0       0       0
  5916 ;;      Temps:          2       0       0       0       0       0       0
  5917 ;;      Totals:         5       0       0       0       0       0       0
  5918 ;;Total ram usage:        5 bytes
  5919 ;; Hardware stack levels used:    1
  5920 ;; Hardware stack levels required when called:    4
  5921 ;; This function calls:
  5922 ;;		___ftpack
  5923 ;; This function is called by:
  5924 ;;		_Tomcat_Depth
  5925 ;;		_Tomcat_Press_Int
  5926 ;;		_Tomcat_Temp
  5927 ;;		_Tomcat_Temp_Ex
  5928 ;; This function uses a non-reentrant model
  5929 ;;
  5930                           
  5931                           	psect	text30
  5932  0028D2                     __ptext30:
  5933                           	opt stack 0
  5934  0028D2                     ___lwtoft:
  5935                           	opt stack 25
  5936                           
  5937                           ;incstack = 0
  5938  0028D2  C01F  F016         	movff	___lwtoft@c,___ftpack@arg
  5939  0028D6  C020  F017         	movff	___lwtoft@c+1,___ftpack@arg+1
  5940  0028DA  6A18               	clrf	___ftpack@arg+2,c
  5941  0028DC  6E22               	movwf	??___lwtoft& (0+255),c
  5942  0028DE  0E8E               	movlw	142
  5943  0028E0  6E19               	movwf	___ftpack@exp,c
  5944  0028E2  5022               	movf	??___lwtoft& (0+255),w,c
  5945  0028E4  6E23               	movwf	(??___lwtoft+1)& (0+255),c
  5946  0028E6  0E00               	movlw	0
  5947  0028E8  6E1A               	movwf	___ftpack@sign,c
  5948  0028EA  5023               	movf	(??___lwtoft+1)& (0+255),w,c
  5949  0028EC  ECA9  F010         	call	___ftpack	;wreg free
  5950  0028F0  C016  F01F         	movff	?___ftpack,?___lwtoft
  5951  0028F4  C017  F020         	movff	?___ftpack+1,?___lwtoft+1
  5952  0028F8  C018  F021         	movff	?___ftpack+2,?___lwtoft+2
  5953  0028FC  0012               	return	
  5954  0028FE                     __end_of___lwtoft:
  5955                           	opt stack 0
  5956                           tblptru	equ	0xFF8
  5957                           tblptrh	equ	0xFF7
  5958                           tblptrl	equ	0xFF6
  5959                           tablat	equ	0xFF5
  5960                           prodh	equ	0xFF4
  5961                           prodl	equ	0xFF3
  5962                           intcon	equ	0xFF2
  5963                           postinc0	equ	0xFEE
  5964                           wreg	equ	0xFE8
  5965                           postinc1	equ	0xFE6
  5966                           postdec1	equ	0xFE5
  5967                           fsr1l	equ	0xFE1
  5968                           indf2	equ	0xFDF
  5969                           postinc2	equ	0xFDE
  5970                           postdec2	equ	0xFDD
  5971                           fsr2h	equ	0xFDA
  5972                           fsr2l	equ	0xFD9
  5973                           status	equ	0xFD8
  5974                           
  5975 ;; *************** function ___ftmul *****************
  5976 ;; Defined at:
  5977 ;;		line 51 in file "C:\Program Files (x86)\Microchip\xc8\v1.30\sources\common\ftmul.c"
  5978 ;; Parameters:    Size  Location     Type
  5979 ;;  f1              3    6[BANK0 ] float 
  5980 ;;  f2              3    9[BANK0 ] float 
  5981 ;; Auto vars:     Size  Location     Type
  5982 ;;  f3_as_produc    3   22[BANK0 ] unsigned um
  5983 ;;  sign            1   26[BANK0 ] unsigned char 
  5984 ;;  cntr            1   25[BANK0 ] unsigned char 
  5985 ;;  exp             1   21[BANK0 ] unsigned char 
  5986 ;; Return value:  Size  Location     Type
  5987 ;;                  3    6[BANK0 ] float 
  5988 ;; Registers used:
  5989 ;;		wreg, status,2, status,0, cstack
  5990 ;; Tracked objects:
  5991 ;;		On entry : 0/0
  5992 ;;		On exit  : 0/0
  5993 ;;		Unchanged: 0/0
  5994 ;; Data sizes:     COMRAM   BANK0   BANK1   BANK2   BANK3   BANK4   BANK5
  5995 ;;      Params:         0       6       0       0       0       0       0
  5996 ;;      Locals:         0      12       0       0       0       0       0
  5997 ;;      Temps:          0       3       0       0       0       0       0
  5998 ;;      Totals:         0      21       0       0       0       0       0
  5999 ;;Total ram usage:       21 bytes
  6000 ;; Hardware stack levels used:    1
  6001 ;; Hardware stack levels required when called:    4
  6002 ;; This function calls:
  6003 ;;		___ftpack
  6004 ;; This function is called by:
  6005 ;;		_Thruster_Driver
  6006 ;;		_Tomcat_Depth
  6007 ;;		_Tomcat_Press_Int
  6008 ;;		_Tomcat_Temp
  6009 ;;		_Tomcat_Temp_Ex
  6010 ;;		_eval_poly
  6011 ;;		_log
  6012 ;;		_Tomcat_Heading
  6013 ;;		_Tomcat_Pitch
  6014 ;;		_Tomcat_Roll
  6015 ;;		_atan
  6016 ;;		___asftmul
  6017 ;; This function uses a non-reentrant model
  6018 ;;
  6019                           
  6020                           	psect	text31
  6021  001184                     __ptext31:
  6022                           	opt stack 0
  6023  001184                     ___ftmul:
  6024                           	opt stack 23
  6025                           
  6026                           ;incstack = 0
  6027  001184  0100               	movlb	0	; () banked
  6028  001186  C068  F06C         	movff	___ftmul@f1+2,??___ftmul
  6029  00118A  0100               	movlb	0	; () banked
  6030  00118C  6B6D               	clrf	(??___ftmul+1)& (0+255),b
  6031  00118E  6B6E               	clrf	(??___ftmul+2)& (0+255),b
  6032  001190  0100               	movlb	0	; () banked
  6033  001192  0100               	movlb	0	; () banked
  6034  001194  3567               	rlcf	(___ftmul@f1+1)& (0+255),w,b
  6035  001196  0100               	movlb	0	; () banked
  6036  001198  376C               	rlcf	??___ftmul& (0+255),f,b
  6037  00119A  E301               	bnc	u7901
  6038  00119C  816D               	bsf	(??___ftmul+1)& (0+255),0,b
  6039  00119E                     u7901:
  6040  00119E  0100               	movlb	0	; () banked
  6041  0011A0  516C               	movf	??___ftmul& (0+255),w,b
  6042  0011A2  0100               	movlb	0	; () banked
  6043  0011A4  0100               	movlb	0	; () banked
  6044  0011A6  6F75               	movwf	___ftmul@exp& (0+255),b
  6045  0011A8  0100               	movlb	0	; () banked
  6046  0011AA  6775               	tstfsz	___ftmul@exp& (0+255),b
  6047  0011AC  D00D               	goto	l8542
  6048                           
  6049                           ; BSR set to: 0
  6050  0011AE  0E00               	movlw	0
  6051  0011B0  0100               	movlb	0	; () banked
  6052  0011B2  0100               	movlb	0	; () banked
  6053  0011B4  6F66               	movwf	?___ftmul& (0+255),b
  6054  0011B6  0E00               	movlw	0
  6055  0011B8  0100               	movlb	0	; () banked
  6056  0011BA  0100               	movlb	0	; () banked
  6057  0011BC  6F67               	movwf	(?___ftmul+1)& (0+255),b
  6058  0011BE  0E00               	movlw	0
  6059  0011C0  0100               	movlb	0	; () banked
  6060  0011C2  0100               	movlb	0	; () banked
  6061  0011C4  6F68               	movwf	(?___ftmul+2)& (0+255),b
  6062  0011C6  0012               	return	
  6063  0011C8                     l8542:
  6064                           
  6065                           ; BSR set to: 0
  6066  0011C8  0100               	movlb	0	; () banked
  6067  0011CA  C06B  F06C         	movff	___ftmul@f2+2,??___ftmul
  6068  0011CE  0100               	movlb	0	; () banked
  6069  0011D0  6B6D               	clrf	(??___ftmul+1)& (0+255),b
  6070  0011D2  6B6E               	clrf	(??___ftmul+2)& (0+255),b
  6071  0011D4  0100               	movlb	0	; () banked
  6072  0011D6  0100               	movlb	0	; () banked
  6073  0011D8  356A               	rlcf	(___ftmul@f2+1)& (0+255),w,b
  6074  0011DA  0100               	movlb	0	; () banked
  6075  0011DC  376C               	rlcf	??___ftmul& (0+255),f,b
  6076  0011DE  E301               	bnc	u7921
  6077  0011E0  816D               	bsf	(??___ftmul+1)& (0+255),0,b
  6078  0011E2                     u7921:
  6079  0011E2  0100               	movlb	0	; () banked
  6080  0011E4  516C               	movf	??___ftmul& (0+255),w,b
  6081  0011E6  0100               	movlb	0	; () banked
  6082  0011E8  0100               	movlb	0	; () banked
  6083  0011EA  6F7A               	movwf	___ftmul@sign& (0+255),b
  6084  0011EC  0100               	movlb	0	; () banked
  6085  0011EE  677A               	tstfsz	___ftmul@sign& (0+255),b
  6086  0011F0  D00D               	goto	l8548
  6087                           
  6088                           ; BSR set to: 0
  6089  0011F2  0E00               	movlw	0
  6090  0011F4  0100               	movlb	0	; () banked
  6091  0011F6  0100               	movlb	0	; () banked
  6092  0011F8  6F66               	movwf	?___ftmul& (0+255),b
  6093  0011FA  0E00               	movlw	0
  6094  0011FC  0100               	movlb	0	; () banked
  6095  0011FE  0100               	movlb	0	; () banked
  6096  001200  6F67               	movwf	(?___ftmul+1)& (0+255),b
  6097  001202  0E00               	movlw	0
  6098  001204  0100               	movlb	0	; () banked
  6099  001206  0100               	movlb	0	; () banked
  6100  001208  6F68               	movwf	(?___ftmul+2)& (0+255),b
  6101  00120A  0012               	return	
  6102  00120C                     l8548:
  6103                           
  6104                           ; BSR set to: 0
  6105  00120C  0100               	movlb	0	; () banked
  6106  00120E  0100               	movlb	0	; () banked
  6107  001210  517A               	movf	___ftmul@sign& (0+255),w,b
  6108  001212  0F7B               	addlw	123
  6109  001214  0100               	movlb	0	; () banked
  6110  001216  0100               	movlb	0	; () banked
  6111  001218  2775               	addwf	___ftmul@exp& (0+255),f,b
  6112                           
  6113                           ; BSR set to: 0
  6114  00121A  C068  F07A         	movff	___ftmul@f1+2,___ftmul@sign
  6115  00121E  0100               	movlb	0	; () banked
  6116  001220  0100               	movlb	0	; () banked
  6117  001222  516B               	movf	(___ftmul@f2+2)& (0+255),w,b
  6118  001224  0100               	movlb	0	; () banked
  6119  001226  0100               	movlb	0	; () banked
  6120  001228  1B7A               	xorwf	___ftmul@sign& (0+255),f,b
  6121  00122A  0E80               	movlw	128
  6122  00122C  0100               	movlb	0	; () banked
  6123  00122E  0100               	movlb	0	; () banked
  6124  001230  177A               	andwf	___ftmul@sign& (0+255),f,b
  6125                           
  6126                           ; BSR set to: 0
  6127  001232  0100               	movlb	0	; () banked
  6128  001234  0100               	movlb	0	; () banked
  6129  001236  8F67               	bsf	(___ftmul@f1+1)& (0+255),7,b
  6130                           
  6131                           ; BSR set to: 0
  6132  001238  0100               	movlb	0	; () banked
  6133  00123A  0100               	movlb	0	; () banked
  6134  00123C  8F6A               	bsf	(___ftmul@f2+1)& (0+255),7,b
  6135                           
  6136                           ; BSR set to: 0
  6137  00123E  0EFF               	movlw	255
  6138  001240  0100               	movlb	0	; () banked
  6139  001242  0100               	movlb	0	; () banked
  6140  001244  1769               	andwf	___ftmul@f2& (0+255),f,b
  6141  001246  0EFF               	movlw	255
  6142  001248  0100               	movlb	0	; () banked
  6143  00124A  0100               	movlb	0	; () banked
  6144  00124C  176A               	andwf	(___ftmul@f2+1)& (0+255),f,b
  6145  00124E  0E00               	movlw	0
  6146  001250  0100               	movlb	0	; () banked
  6147  001252  0100               	movlb	0	; () banked
  6148  001254  176B               	andwf	(___ftmul@f2+2)& (0+255),f,b
  6149                           
  6150                           ; BSR set to: 0
  6151  001256  0E00               	movlw	0
  6152  001258  0100               	movlb	0	; () banked
  6153  00125A  0100               	movlb	0	; () banked
  6154  00125C  6F76               	movwf	___ftmul@f3_as_product& (0+255),b
  6155  00125E  0E00               	movlw	0
  6156  001260  0100               	movlb	0	; () banked
  6157  001262  0100               	movlb	0	; () banked
  6158  001264  6F77               	movwf	(___ftmul@f3_as_product+1)& (0+255),b
  6159  001266  0E00               	movlw	0
  6160  001268  0100               	movlb	0	; () banked
  6161  00126A  0100               	movlb	0	; () banked
  6162  00126C  6F78               	movwf	(___ftmul@f3_as_product+2)& (0+255),b
  6163                           
  6164                           ; BSR set to: 0
  6165  00126E  0100               	movlb	0	; () banked
  6166  001270  6F6C               	movwf	??___ftmul& (0+255),b
  6167  001272  0E07               	movlw	7
  6168  001274  0100               	movlb	0	; () banked
  6169  001276  0100               	movlb	0	; () banked
  6170  001278  6F79               	movwf	___ftmul@cntr& (0+255),b
  6171  00127A  0100               	movlb	0	; () banked
  6172  00127C  516C               	movf	??___ftmul& (0+255),w,b
  6173  00127E                     l8562:
  6174                           
  6175                           ; BSR set to: 0
  6176  00127E  0100               	movlb	0	; () banked
  6177  001280  0100               	movlb	0	; () banked
  6178  001282  A166               	btfss	___ftmul@f1& (0+255),0,b
  6179  001284  D012               	goto	l8566
  6180                           
  6181                           ; BSR set to: 0
  6182  001286  0100               	movlb	0	; () banked
  6183  001288  0100               	movlb	0	; () banked
  6184  00128A  5169               	movf	___ftmul@f2& (0+255),w,b
  6185  00128C  0100               	movlb	0	; () banked
  6186  00128E  0100               	movlb	0	; () banked
  6187  001290  2776               	addwf	___ftmul@f3_as_product& (0+255),f,b
  6188  001292  0100               	movlb	0	; () banked
  6189  001294  0100               	movlb	0	; () banked
  6190  001296  516A               	movf	(___ftmul@f2+1)& (0+255),w,b
  6191  001298  0100               	movlb	0	; () banked
  6192  00129A  0100               	movlb	0	; () banked
  6193  00129C  2377               	addwfc	(___ftmul@f3_as_product+1)& (0+255),f,b
  6194  00129E  0100               	movlb	0	; () banked
  6195  0012A0  0100               	movlb	0	; () banked
  6196  0012A2  516B               	movf	(___ftmul@f2+2)& (0+255),w,b
  6197  0012A4  0100               	movlb	0	; () banked
  6198  0012A6  0100               	movlb	0	; () banked
  6199  0012A8  2378               	addwfc	(___ftmul@f3_as_product+2)& (0+255),f,b
  6200  0012AA                     l8566:
  6201                           
  6202                           ; BSR set to: 0
  6203  0012AA  0100               	movlb	0	; () banked
  6204  0012AC  90D8               	bcf	status,0,c
  6205  0012AE  0100               	movlb	0	; () banked
  6206  0012B0  3368               	rrcf	(___ftmul@f1+2)& (0+255),f,b
  6207  0012B2  0100               	movlb	0	; () banked
  6208  0012B4  3367               	rrcf	(___ftmul@f1+1)& (0+255),f,b
  6209  0012B6  0100               	movlb	0	; () banked
  6210  0012B8  3366               	rrcf	___ftmul@f1& (0+255),f,b
  6211  0012BA  0100               	movlb	0	; () banked
  6212  0012BC  90D8               	bcf	status,0,c
  6213  0012BE  0100               	movlb	0	; () banked
  6214  0012C0  3769               	rlcf	___ftmul@f2& (0+255),f,b
  6215  0012C2  0100               	movlb	0	; () banked
  6216  0012C4  376A               	rlcf	(___ftmul@f2+1)& (0+255),f,b
  6217  0012C6  0100               	movlb	0	; () banked
  6218  0012C8  376B               	rlcf	(___ftmul@f2+2)& (0+255),f,b
  6219                           
  6220                           ; BSR set to: 0
  6221  0012CA  0100               	movlb	0	; () banked
  6222  0012CC  0100               	movlb	0	; () banked
  6223  0012CE  2F79               	decfsz	___ftmul@cntr& (0+255),f,b
  6224  0012D0  D7D6               	goto	l8562
  6225                           
  6226                           ; BSR set to: 0
  6227                           
  6228                           ; BSR set to: 0
  6229  0012D2  0100               	movlb	0	; () banked
  6230  0012D4  6F6C               	movwf	??___ftmul& (0+255),b
  6231  0012D6  0E09               	movlw	9
  6232  0012D8  0100               	movlb	0	; () banked
  6233  0012DA  0100               	movlb	0	; () banked
  6234  0012DC  6F79               	movwf	___ftmul@cntr& (0+255),b
  6235  0012DE  0100               	movlb	0	; () banked
  6236  0012E0  516C               	movf	??___ftmul& (0+255),w,b
  6237  0012E2                     l8572:
  6238                           
  6239                           ; BSR set to: 0
  6240  0012E2  0100               	movlb	0	; () banked
  6241  0012E4  0100               	movlb	0	; () banked
  6242  0012E6  A166               	btfss	___ftmul@f1& (0+255),0,b
  6243  0012E8  D012               	goto	l8576
  6244                           
  6245                           ; BSR set to: 0
  6246  0012EA  0100               	movlb	0	; () banked
  6247  0012EC  0100               	movlb	0	; () banked
  6248  0012EE  5169               	movf	___ftmul@f2& (0+255),w,b
  6249  0012F0  0100               	movlb	0	; () banked
  6250  0012F2  0100               	movlb	0	; () banked
  6251  0012F4  2776               	addwf	___ftmul@f3_as_product& (0+255),f,b
  6252  0012F6  0100               	movlb	0	; () banked
  6253  0012F8  0100               	movlb	0	; () banked
  6254  0012FA  516A               	movf	(___ftmul@f2+1)& (0+255),w,b
  6255  0012FC  0100               	movlb	0	; () banked
  6256  0012FE  0100               	movlb	0	; () banked
  6257  001300  2377               	addwfc	(___ftmul@f3_as_product+1)& (0+255),f,b
  6258  001302  0100               	movlb	0	; () banked
  6259  001304  0100               	movlb	0	; () banked
  6260  001306  516B               	movf	(___ftmul@f2+2)& (0+255),w,b
  6261  001308  0100               	movlb	0	; () banked
  6262  00130A  0100               	movlb	0	; () banked
  6263  00130C  2378               	addwfc	(___ftmul@f3_as_product+2)& (0+255),f,b
  6264  00130E                     l8576:
  6265                           
  6266                           ; BSR set to: 0
  6267  00130E  0100               	movlb	0	; () banked
  6268  001310  90D8               	bcf	status,0,c
  6269  001312  0100               	movlb	0	; () banked
  6270  001314  3368               	rrcf	(___ftmul@f1+2)& (0+255),f,b
  6271  001316  0100               	movlb	0	; () banked
  6272  001318  3367               	rrcf	(___ftmul@f1+1)& (0+255),f,b
  6273  00131A  0100               	movlb	0	; () banked
  6274  00131C  3366               	rrcf	___ftmul@f1& (0+255),f,b
  6275  00131E  0100               	movlb	0	; () banked
  6276  001320  90D8               	bcf	status,0,c
  6277  001322  0100               	movlb	0	; () banked
  6278  001324  3378               	rrcf	(___ftmul@f3_as_product+2)& (0+255),f,b
  6279  001326  0100               	movlb	0	; () banked
  6280  001328  3377               	rrcf	(___ftmul@f3_as_product+1)& (0+255),f,b
  6281  00132A  0100               	movlb	0	; () banked
  6282  00132C  3376               	rrcf	___ftmul@f3_as_product& (0+255),f,b
  6283                           
  6284                           ; BSR set to: 0
  6285  00132E  0100               	movlb	0	; () banked
  6286  001330  0100               	movlb	0	; () banked
  6287  001332  2F79               	decfsz	___ftmul@cntr& (0+255),f,b
  6288  001334  D7D6               	goto	l8572
  6289                           
  6290                           ; BSR set to: 0
  6291                           
  6292                           ; BSR set to: 0
  6293  001336  C076  F016         	movff	___ftmul@f3_as_product,___ftpack@arg
  6294  00133A  C077  F017         	movff	___ftmul@f3_as_product+1,___ftpack@arg+1
  6295  00133E  C078  F018         	movff	___ftmul@f3_as_product+2,___ftpack@arg+2
  6296  001342  C075  F019         	movff	___ftmul@exp,___ftpack@exp
  6297  001346  C07A  F01A         	movff	___ftmul@sign,___ftpack@sign
  6298  00134A  ECA9  F010         	call	___ftpack	;wreg free
  6299  00134E  C016  F066         	movff	?___ftpack,?___ftmul
  6300  001352  C017  F067         	movff	?___ftpack+1,?___ftmul+1
  6301  001356  C018  F068         	movff	?___ftpack+2,?___ftmul+2
  6302  00135A  0012               	return	
  6303  00135C                     __end_of___ftmul:
  6304                           	opt stack 0
  6305                           tblptru	equ	0xFF8
  6306                           tblptrh	equ	0xFF7
  6307                           tblptrl	equ	0xFF6
  6308                           tablat	equ	0xFF5
  6309                           prodh	equ	0xFF4
  6310                           prodl	equ	0xFF3
  6311                           intcon	equ	0xFF2
  6312                           postinc0	equ	0xFEE
  6313                           wreg	equ	0xFE8
  6314                           postinc1	equ	0xFE6
  6315                           postdec1	equ	0xFE5
  6316                           fsr1l	equ	0xFE1
  6317                           indf2	equ	0xFDF
  6318                           postinc2	equ	0xFDE
  6319                           postdec2	equ	0xFDD
  6320                           fsr2h	equ	0xFDA
  6321                           fsr2l	equ	0xFD9
  6322                           status	equ	0xFD8
  6323                           
  6324 ;; *************** function ___ftadd *****************
  6325 ;; Defined at:
  6326 ;;		line 86 in file "C:\Program Files (x86)\Microchip\xc8\v1.30\sources\common\ftadd.c"
  6327 ;; Parameters:    Size  Location     Type
  6328 ;;  f1              3   27[BANK0 ] float 
  6329 ;;  f2              3   30[BANK0 ] float 
  6330 ;; Auto vars:     Size  Location     Type
  6331 ;;  exp1            1   41[BANK0 ] unsigned char 
  6332 ;;  exp2            1   40[BANK0 ] unsigned char 
  6333 ;;  sign            1   39[BANK0 ] unsigned char 
  6334 ;; Return value:  Size  Location     Type
  6335 ;;                  3   27[BANK0 ] float 
  6336 ;; Registers used:
  6337 ;;		wreg, status,2, status,0, cstack
  6338 ;; Tracked objects:
  6339 ;;		On entry : 0/0
  6340 ;;		On exit  : 0/0
  6341 ;;		Unchanged: 0/0
  6342 ;; Data sizes:     COMRAM   BANK0   BANK1   BANK2   BANK3   BANK4   BANK5
  6343 ;;      Params:         0       6       0       0       0       0       0
  6344 ;;      Locals:         0       6       0       0       0       0       0
  6345 ;;      Temps:          0       3       0       0       0       0       0
  6346 ;;      Totals:         0      15       0       0       0       0       0
  6347 ;;Total ram usage:       15 bytes
  6348 ;; Hardware stack levels used:    1
  6349 ;; Hardware stack levels required when called:    4
  6350 ;; This function calls:
  6351 ;;		___ftpack
  6352 ;; This function is called by:
  6353 ;;		_Tomcat_Depth
  6354 ;;		_Tomcat_Press_Int
  6355 ;;		_Tomcat_Temp_Ex
  6356 ;;		_eval_poly
  6357 ;;		_log
  6358 ;;		_Tomcat_Heading
  6359 ;;		_Tomcat_Pitch
  6360 ;;		_Tomcat_Roll
  6361 ;;		_atan
  6362 ;; This function uses a non-reentrant model
  6363 ;;
  6364                           
  6365                           	psect	text32
  6366  000C18                     __ptext32:
  6367                           	opt stack 0
  6368  000C18                     ___ftadd:
  6369                           	opt stack 23
  6370                           
  6371                           ;incstack = 0
  6372  000C18  0100               	movlb	0	; () banked
  6373  000C1A  C07D  F081         	movff	___ftadd@f1+2,??___ftadd
  6374  000C1E  0100               	movlb	0	; () banked
  6375  000C20  6B82               	clrf	(??___ftadd+1)& (0+255),b
  6376  000C22  6B83               	clrf	(??___ftadd+2)& (0+255),b
  6377  000C24  0100               	movlb	0	; () banked
  6378  000C26  0100               	movlb	0	; () banked
  6379  000C28  357C               	rlcf	(___ftadd@f1+1)& (0+255),w,b
  6380  000C2A  0100               	movlb	0	; () banked
  6381  000C2C  3781               	rlcf	??___ftadd& (0+255),f,b
  6382  000C2E  E301               	bnc	u5591
  6383  000C30  8182               	bsf	(??___ftadd+1)& (0+255),0,b
  6384  000C32                     u5591:
  6385  000C32  0100               	movlb	0	; () banked
  6386  000C34  5181               	movf	??___ftadd& (0+255),w,b
  6387  000C36  0100               	movlb	0	; () banked
  6388  000C38  0100               	movlb	0	; () banked
  6389  000C3A  6F89               	movwf	___ftadd@exp1& (0+255),b
  6390  000C3C  0100               	movlb	0	; () banked
  6391  000C3E  C080  F081         	movff	___ftadd@f2+2,??___ftadd
  6392  000C42  0100               	movlb	0	; () banked
  6393  000C44  6B82               	clrf	(??___ftadd+1)& (0+255),b
  6394  000C46  6B83               	clrf	(??___ftadd+2)& (0+255),b
  6395  000C48  0100               	movlb	0	; () banked
  6396  000C4A  0100               	movlb	0	; () banked
  6397  000C4C  357F               	rlcf	(___ftadd@f2+1)& (0+255),w,b
  6398  000C4E  0100               	movlb	0	; () banked
  6399  000C50  3781               	rlcf	??___ftadd& (0+255),f,b
  6400  000C52  E301               	bnc	u5601
  6401  000C54  8182               	bsf	(??___ftadd+1)& (0+255),0,b
  6402  000C56                     u5601:
  6403  000C56  0100               	movlb	0	; () banked
  6404  000C58  5181               	movf	??___ftadd& (0+255),w,b
  6405  000C5A  0100               	movlb	0	; () banked
  6406  000C5C  0100               	movlb	0	; () banked
  6407  000C5E  6F88               	movwf	___ftadd@exp2& (0+255),b
  6408                           
  6409                           ; BSR set to: 0
  6410  000C60  0100               	movlb	0	; () banked
  6411  000C62  0100               	movlb	0	; () banked
  6412  000C64  5189               	movf	___ftadd@exp1& (0+255),w,b
  6413  000C66  B4D8               	btfsc	status,2,c
  6414  000C68  D016               	goto	l1172
  6415                           
  6416                           ; BSR set to: 0
  6417  000C6A  0100               	movlb	0	; () banked
  6418  000C6C  0100               	movlb	0	; () banked
  6419  000C6E  5188               	movf	___ftadd@exp2& (0+255),w,b
  6420  000C70  0100               	movlb	0	; () banked
  6421  000C72  0100               	movlb	0	; () banked
  6422  000C74  5D89               	subwf	___ftadd@exp1& (0+255),w,b
  6423  000C76  B0D8               	btfsc	status,0,c
  6424  000C78  D015               	goto	l6524
  6425                           
  6426                           ; BSR set to: 0
  6427  000C7A  0100               	movlb	0	; () banked
  6428  000C7C  0100               	movlb	0	; () banked
  6429  000C7E  5189               	movf	___ftadd@exp1& (0+255),w,b
  6430  000C80  0800               	sublw	0
  6431  000C82  0100               	movlb	0	; () banked
  6432  000C84  0100               	movlb	0	; () banked
  6433  000C86  2588               	addwf	___ftadd@exp2& (0+255),w,b
  6434  000C88  0100               	movlb	0	; () banked
  6435  000C8A  6F81               	movwf	??___ftadd& (0+255),b
  6436  000C8C  0E19               	movlw	25
  6437  000C8E  0100               	movlb	0	; () banked
  6438  000C90  5D81               	subwf	??___ftadd& (0+255),w,b
  6439  000C92  A0D8               	btfss	status,0,c
  6440  000C94  D007               	goto	l6524
  6441  000C96                     l1172:
  6442                           
  6443                           ; BSR set to: 0
  6444  000C96  C07E  F07B         	movff	___ftadd@f2,?___ftadd
  6445  000C9A  C07F  F07C         	movff	___ftadd@f2+1,?___ftadd+1
  6446  000C9E  C080  F07D         	movff	___ftadd@f2+2,?___ftadd+2
  6447  000CA2  0012               	return	
  6448  000CA4                     l6524:
  6449                           
  6450                           ; BSR set to: 0
  6451  000CA4  0100               	movlb	0	; () banked
  6452  000CA6  0100               	movlb	0	; () banked
  6453  000CA8  5188               	movf	___ftadd@exp2& (0+255),w,b
  6454  000CAA  B4D8               	btfsc	status,2,c
  6455  000CAC  D016               	goto	l1176
  6456                           
  6457                           ; BSR set to: 0
  6458  000CAE  0100               	movlb	0	; () banked
  6459  000CB0  0100               	movlb	0	; () banked
  6460  000CB2  5189               	movf	___ftadd@exp1& (0+255),w,b
  6461  000CB4  0100               	movlb	0	; () banked
  6462  000CB6  0100               	movlb	0	; () banked
  6463  000CB8  5D88               	subwf	___ftadd@exp2& (0+255),w,b
  6464  000CBA  B0D8               	btfsc	status,0,c
  6465  000CBC  D015               	goto	l6530
  6466                           
  6467                           ; BSR set to: 0
  6468  000CBE  0100               	movlb	0	; () banked
  6469  000CC0  0100               	movlb	0	; () banked
  6470  000CC2  5188               	movf	___ftadd@exp2& (0+255),w,b
  6471  000CC4  0800               	sublw	0
  6472  000CC6  0100               	movlb	0	; () banked
  6473  000CC8  0100               	movlb	0	; () banked
  6474  000CCA  2589               	addwf	___ftadd@exp1& (0+255),w,b
  6475  000CCC  0100               	movlb	0	; () banked
  6476  000CCE  6F81               	movwf	??___ftadd& (0+255),b
  6477  000CD0  0E19               	movlw	25
  6478  000CD2  0100               	movlb	0	; () banked
  6479  000CD4  5D81               	subwf	??___ftadd& (0+255),w,b
  6480  000CD6  A0D8               	btfss	status,0,c
  6481  000CD8  D007               	goto	l6530
  6482  000CDA                     l1176:
  6483                           
  6484                           ; BSR set to: 0
  6485  000CDA  C07B  F07B         	movff	___ftadd@f1,?___ftadd
  6486  000CDE  C07C  F07C         	movff	___ftadd@f1+1,?___ftadd+1
  6487  000CE2  C07D  F07D         	movff	___ftadd@f1+2,?___ftadd+2
  6488  000CE6  0012               	return	
  6489  000CE8                     l6530:
  6490                           
  6491                           ; BSR set to: 0
  6492  000CE8  0100               	movlb	0	; () banked
  6493  000CEA  6F81               	movwf	??___ftadd& (0+255),b
  6494  000CEC  0E06               	movlw	6
  6495  000CEE  0100               	movlb	0	; () banked
  6496  000CF0  0100               	movlb	0	; () banked
  6497  000CF2  6F87               	movwf	___ftadd@sign& (0+255),b
  6498  000CF4  0100               	movlb	0	; () banked
  6499  000CF6  5181               	movf	??___ftadd& (0+255),w,b
  6500                           
  6501                           ; BSR set to: 0
  6502  000CF8  0100               	movlb	0	; () banked
  6503  000CFA  0100               	movlb	0	; () banked
  6504  000CFC  AF7D               	btfss	(___ftadd@f1+2)& (0+255),7,b
  6505  000CFE  D003               	goto	l6536
  6506                           
  6507                           ; BSR set to: 0
  6508  000D00  0100               	movlb	0	; () banked
  6509  000D02  0100               	movlb	0	; () banked
  6510  000D04  8F87               	bsf	___ftadd@sign& (0+255),7,b
  6511  000D06                     l6536:
  6512                           
  6513                           ; BSR set to: 0
  6514  000D06  0100               	movlb	0	; () banked
  6515  000D08  0100               	movlb	0	; () banked
  6516  000D0A  AF80               	btfss	(___ftadd@f2+2)& (0+255),7,b
  6517  000D0C  D003               	goto	l1178
  6518                           
  6519                           ; BSR set to: 0
  6520  000D0E  0100               	movlb	0	; () banked
  6521  000D10  0100               	movlb	0	; () banked
  6522  000D12  8D87               	bsf	___ftadd@sign& (0+255),6,b
  6523  000D14                     l1178:
  6524                           
  6525                           ; BSR set to: 0
  6526  000D14  0100               	movlb	0	; () banked
  6527  000D16  0100               	movlb	0	; () banked
  6528  000D18  8F7C               	bsf	(___ftadd@f1+1)& (0+255),7,b
  6529                           
  6530                           ; BSR set to: 0
  6531  000D1A  0EFF               	movlw	255
  6532  000D1C  0100               	movlb	0	; () banked
  6533  000D1E  0100               	movlb	0	; () banked
  6534  000D20  177B               	andwf	___ftadd@f1& (0+255),f,b
  6535  000D22  0EFF               	movlw	255
  6536  000D24  0100               	movlb	0	; () banked
  6537  000D26  0100               	movlb	0	; () banked
  6538  000D28  177C               	andwf	(___ftadd@f1+1)& (0+255),f,b
  6539  000D2A  0E00               	movlw	0
  6540  000D2C  0100               	movlb	0	; () banked
  6541  000D2E  0100               	movlb	0	; () banked
  6542  000D30  177D               	andwf	(___ftadd@f1+2)& (0+255),f,b
  6543  000D32  0100               	movlb	0	; () banked
  6544  000D34  0100               	movlb	0	; () banked
  6545  000D36  8F7F               	bsf	(___ftadd@f2+1)& (0+255),7,b
  6546                           
  6547                           ; BSR set to: 0
  6548  000D38  0EFF               	movlw	255
  6549  000D3A  0100               	movlb	0	; () banked
  6550  000D3C  0100               	movlb	0	; () banked
  6551  000D3E  177E               	andwf	___ftadd@f2& (0+255),f,b
  6552  000D40  0EFF               	movlw	255
  6553  000D42  0100               	movlb	0	; () banked
  6554  000D44  0100               	movlb	0	; () banked
  6555  000D46  177F               	andwf	(___ftadd@f2+1)& (0+255),f,b
  6556  000D48  0E00               	movlw	0
  6557  000D4A  0100               	movlb	0	; () banked
  6558  000D4C  0100               	movlb	0	; () banked
  6559  000D4E  1780               	andwf	(___ftadd@f2+2)& (0+255),f,b
  6560                           
  6561                           ; BSR set to: 0
  6562  000D50  0100               	movlb	0	; () banked
  6563  000D52  0100               	movlb	0	; () banked
  6564  000D54  5188               	movf	___ftadd@exp2& (0+255),w,b
  6565  000D56  0100               	movlb	0	; () banked
  6566  000D58  0100               	movlb	0	; () banked
  6567  000D5A  5D89               	subwf	___ftadd@exp1& (0+255),w,b
  6568  000D5C  B0D8               	btfsc	status,0,c
  6569  000D5E  D031               	goto	l6556
  6570  000D60                     l6546:
  6571                           
  6572                           ; BSR set to: 0
  6573  000D60  0100               	movlb	0	; () banked
  6574  000D62  90D8               	bcf	status,0,c
  6575  000D64  0100               	movlb	0	; () banked
  6576  000D66  377E               	rlcf	___ftadd@f2& (0+255),f,b
  6577  000D68  0100               	movlb	0	; () banked
  6578  000D6A  377F               	rlcf	(___ftadd@f2+1)& (0+255),f,b
  6579  000D6C  0100               	movlb	0	; () banked
  6580  000D6E  3780               	rlcf	(___ftadd@f2+2)& (0+255),f,b
  6581  000D70  0100               	movlb	0	; () banked
  6582  000D72  0100               	movlb	0	; () banked
  6583  000D74  0788               	decf	___ftadd@exp2& (0+255),f,b
  6584                           
  6585                           ; BSR set to: 0
  6586  000D76  0100               	movlb	0	; () banked
  6587  000D78  0100               	movlb	0	; () banked
  6588  000D7A  5188               	movf	___ftadd@exp2& (0+255),w,b
  6589  000D7C  0100               	movlb	0	; () banked
  6590  000D7E  0100               	movlb	0	; () banked
  6591  000D80  1989               	xorwf	___ftadd@exp1& (0+255),w,b
  6592  000D82  B4D8               	btfsc	status,2,c
  6593  000D84  D016               	goto	l6554
  6594                           
  6595                           ; BSR set to: 0
  6596  000D86  0100               	movlb	0	; () banked
  6597  000D88  0100               	movlb	0	; () banked
  6598  000D8A  0787               	decf	___ftadd@sign& (0+255),f,b
  6599  000D8C  C087  F081         	movff	___ftadd@sign,??___ftadd
  6600  000D90  0E07               	movlw	7
  6601  000D92  0100               	movlb	0	; () banked
  6602  000D94  1781               	andwf	??___ftadd& (0+255),f,b
  6603  000D96  B4D8               	btfsc	status,2,c
  6604  000D98  D00C               	goto	l6554
  6605  000D9A  D7E2               	goto	l6546
  6606  000D9C                     l6552:
  6607                           
  6608                           ; BSR set to: 0
  6609  000D9C  0100               	movlb	0	; () banked
  6610  000D9E  90D8               	bcf	status,0,c
  6611  000DA0  0100               	movlb	0	; () banked
  6612  000DA2  337D               	rrcf	(___ftadd@f1+2)& (0+255),f,b
  6613  000DA4  0100               	movlb	0	; () banked
  6614  000DA6  337C               	rrcf	(___ftadd@f1+1)& (0+255),f,b
  6615  000DA8  0100               	movlb	0	; () banked
  6616  000DAA  337B               	rrcf	___ftadd@f1& (0+255),f,b
  6617  000DAC  0100               	movlb	0	; () banked
  6618  000DAE  0100               	movlb	0	; () banked
  6619  000DB0  2B89               	incf	___ftadd@exp1& (0+255),f,b
  6620  000DB2                     l6554:
  6621                           
  6622                           ; BSR set to: 0
  6623  000DB2  0100               	movlb	0	; () banked
  6624  000DB4  0100               	movlb	0	; () banked
  6625  000DB6  5188               	movf	___ftadd@exp2& (0+255),w,b
  6626  000DB8  0100               	movlb	0	; () banked
  6627  000DBA  0100               	movlb	0	; () banked
  6628  000DBC  6389               	cpfseq	___ftadd@exp1& (0+255),b
  6629  000DBE  D7EE               	goto	l6552
  6630  000DC0  D038               	goto	l1187
  6631  000DC2                     l6556:
  6632                           
  6633                           ; BSR set to: 0
  6634  000DC2  0100               	movlb	0	; () banked
  6635  000DC4  0100               	movlb	0	; () banked
  6636  000DC6  5189               	movf	___ftadd@exp1& (0+255),w,b
  6637  000DC8  0100               	movlb	0	; () banked
  6638  000DCA  0100               	movlb	0	; () banked
  6639  000DCC  5D88               	subwf	___ftadd@exp2& (0+255),w,b
  6640  000DCE  B0D8               	btfsc	status,0,c
  6641  000DD0  D030               	goto	l1187
  6642  000DD2                     l6558:
  6643                           
  6644                           ; BSR set to: 0
  6645  000DD2  0100               	movlb	0	; () banked
  6646  000DD4  90D8               	bcf	status,0,c
  6647  000DD6  0100               	movlb	0	; () banked
  6648  000DD8  377B               	rlcf	___ftadd@f1& (0+255),f,b
  6649  000DDA  0100               	movlb	0	; () banked
  6650  000DDC  377C               	rlcf	(___ftadd@f1+1)& (0+255),f,b
  6651  000DDE  0100               	movlb	0	; () banked
  6652  000DE0  377D               	rlcf	(___ftadd@f1+2)& (0+255),f,b
  6653  000DE2  0100               	movlb	0	; () banked
  6654  000DE4  0100               	movlb	0	; () banked
  6655  000DE6  0789               	decf	___ftadd@exp1& (0+255),f,b
  6656                           
  6657                           ; BSR set to: 0
  6658  000DE8  0100               	movlb	0	; () banked
  6659  000DEA  0100               	movlb	0	; () banked
  6660  000DEC  5188               	movf	___ftadd@exp2& (0+255),w,b
  6661  000DEE  0100               	movlb	0	; () banked
  6662  000DF0  0100               	movlb	0	; () banked
  6663  000DF2  1989               	xorwf	___ftadd@exp1& (0+255),w,b
  6664  000DF4  B4D8               	btfsc	status,2,c
  6665  000DF6  D016               	goto	l6566
  6666                           
  6667                           ; BSR set to: 0
  6668  000DF8  0100               	movlb	0	; () banked
  6669  000DFA  0100               	movlb	0	; () banked
  6670  000DFC  0787               	decf	___ftadd@sign& (0+255),f,b
  6671  000DFE  C087  F081         	movff	___ftadd@sign,??___ftadd
  6672  000E02  0E07               	movlw	7
  6673  000E04  0100               	movlb	0	; () banked
  6674  000E06  1781               	andwf	??___ftadd& (0+255),f,b
  6675  000E08  B4D8               	btfsc	status,2,c
  6676  000E0A  D00C               	goto	l6566
  6677  000E0C  D7E2               	goto	l6558
  6678  000E0E                     l6564:
  6679                           
  6680                           ; BSR set to: 0
  6681  000E0E  0100               	movlb	0	; () banked
  6682  000E10  90D8               	bcf	status,0,c
  6683  000E12  0100               	movlb	0	; () banked
  6684  000E14  3380               	rrcf	(___ftadd@f2+2)& (0+255),f,b
  6685  000E16  0100               	movlb	0	; () banked
  6686  000E18  337F               	rrcf	(___ftadd@f2+1)& (0+255),f,b
  6687  000E1A  0100               	movlb	0	; () banked
  6688  000E1C  337E               	rrcf	___ftadd@f2& (0+255),f,b
  6689  000E1E  0100               	movlb	0	; () banked
  6690  000E20  0100               	movlb	0	; () banked
  6691  000E22  2B88               	incf	___ftadd@exp2& (0+255),f,b
  6692  000E24                     l6566:
  6693                           
  6694                           ; BSR set to: 0
  6695  000E24  0100               	movlb	0	; () banked
  6696  000E26  0100               	movlb	0	; () banked
  6697  000E28  5188               	movf	___ftadd@exp2& (0+255),w,b
  6698  000E2A  0100               	movlb	0	; () banked
  6699  000E2C  0100               	movlb	0	; () banked
  6700  000E2E  6389               	cpfseq	___ftadd@exp1& (0+255),b
  6701  000E30  D7EE               	goto	l6564
  6702  000E32                     l1187:
  6703                           
  6704                           ; BSR set to: 0
  6705  000E32  0100               	movlb	0	; () banked
  6706  000E34  0100               	movlb	0	; () banked
  6707  000E36  AF87               	btfss	___ftadd@sign& (0+255),7,b
  6708  000E38  D018               	goto	l1196
  6709                           
  6710                           ; BSR set to: 0
  6711  000E3A  0EFF               	movlw	255
  6712  000E3C  0100               	movlb	0	; () banked
  6713  000E3E  0100               	movlb	0	; () banked
  6714  000E40  1B7B               	xorwf	___ftadd@f1& (0+255),f,b
  6715  000E42  0EFF               	movlw	255
  6716  000E44  0100               	movlb	0	; () banked
  6717  000E46  0100               	movlb	0	; () banked
  6718  000E48  1B7C               	xorwf	(___ftadd@f1+1)& (0+255),f,b
  6719  000E4A  0EFF               	movlw	255
  6720  000E4C  0100               	movlb	0	; () banked
  6721  000E4E  0100               	movlb	0	; () banked
  6722  000E50  1B7D               	xorwf	(___ftadd@f1+2)& (0+255),f,b
  6723  000E52  0E01               	movlw	1
  6724  000E54  0100               	movlb	0	; () banked
  6725  000E56  0100               	movlb	0	; () banked
  6726  000E58  277B               	addwf	___ftadd@f1& (0+255),f,b
  6727  000E5A  0E00               	movlw	0
  6728  000E5C  0100               	movlb	0	; () banked
  6729  000E5E  0100               	movlb	0	; () banked
  6730  000E60  237C               	addwfc	(___ftadd@f1+1)& (0+255),f,b
  6731  000E62  0E00               	movlw	0
  6732  000E64  0100               	movlb	0	; () banked
  6733  000E66  0100               	movlb	0	; () banked
  6734  000E68  237D               	addwfc	(___ftadd@f1+2)& (0+255),f,b
  6735  000E6A                     l1196:
  6736                           
  6737                           ; BSR set to: 0
  6738  000E6A  0100               	movlb	0	; () banked
  6739  000E6C  0100               	movlb	0	; () banked
  6740  000E6E  AD87               	btfss	___ftadd@sign& (0+255),6,b
  6741  000E70  D018               	goto	l6572
  6742                           
  6743                           ; BSR set to: 0
  6744  000E72  0EFF               	movlw	255
  6745  000E74  0100               	movlb	0	; () banked
  6746  000E76  0100               	movlb	0	; () banked
  6747  000E78  1B7E               	xorwf	___ftadd@f2& (0+255),f,b
  6748  000E7A  0EFF               	movlw	255
  6749  000E7C  0100               	movlb	0	; () banked
  6750  000E7E  0100               	movlb	0	; () banked
  6751  000E80  1B7F               	xorwf	(___ftadd@f2+1)& (0+255),f,b
  6752  000E82  0EFF               	movlw	255
  6753  000E84  0100               	movlb	0	; () banked
  6754  000E86  0100               	movlb	0	; () banked
  6755  000E88  1B80               	xorwf	(___ftadd@f2+2)& (0+255),f,b
  6756  000E8A  0E01               	movlw	1
  6757  000E8C  0100               	movlb	0	; () banked
  6758  000E8E  0100               	movlb	0	; () banked
  6759  000E90  277E               	addwf	___ftadd@f2& (0+255),f,b
  6760  000E92  0E00               	movlw	0
  6761  000E94  0100               	movlb	0	; () banked
  6762  000E96  0100               	movlb	0	; () banked
  6763  000E98  237F               	addwfc	(___ftadd@f2+1)& (0+255),f,b
  6764  000E9A  0E00               	movlw	0
  6765  000E9C  0100               	movlb	0	; () banked
  6766  000E9E  0100               	movlb	0	; () banked
  6767  000EA0  2380               	addwfc	(___ftadd@f2+2)& (0+255),f,b
  6768  000EA2                     l6572:
  6769                           
  6770                           ; BSR set to: 0
  6771  000EA2  0100               	movlb	0	; () banked
  6772  000EA4  6F81               	movwf	??___ftadd& (0+255),b
  6773  000EA6  0E00               	movlw	0
  6774  000EA8  0100               	movlb	0	; () banked
  6775  000EAA  0100               	movlb	0	; () banked
  6776  000EAC  6F87               	movwf	___ftadd@sign& (0+255),b
  6777  000EAE  0100               	movlb	0	; () banked
  6778  000EB0  5181               	movf	??___ftadd& (0+255),w,b
  6779                           
  6780                           ; BSR set to: 0
  6781  000EB2  0100               	movlb	0	; () banked
  6782  000EB4  0100               	movlb	0	; () banked
  6783  000EB6  517B               	movf	___ftadd@f1& (0+255),w,b
  6784  000EB8  0100               	movlb	0	; () banked
  6785  000EBA  0100               	movlb	0	; () banked
  6786  000EBC  277E               	addwf	___ftadd@f2& (0+255),f,b
  6787  000EBE  0100               	movlb	0	; () banked
  6788  000EC0  0100               	movlb	0	; () banked
  6789  000EC2  517C               	movf	(___ftadd@f1+1)& (0+255),w,b
  6790  000EC4  0100               	movlb	0	; () banked
  6791  000EC6  0100               	movlb	0	; () banked
  6792  000EC8  237F               	addwfc	(___ftadd@f2+1)& (0+255),f,b
  6793  000ECA  0100               	movlb	0	; () banked
  6794  000ECC  0100               	movlb	0	; () banked
  6795  000ECE  517D               	movf	(___ftadd@f1+2)& (0+255),w,b
  6796  000ED0  0100               	movlb	0	; () banked
  6797  000ED2  0100               	movlb	0	; () banked
  6798  000ED4  2380               	addwfc	(___ftadd@f2+2)& (0+255),f,b
  6799                           
  6800                           ; BSR set to: 0
  6801  000ED6  0100               	movlb	0	; () banked
  6802  000ED8  0100               	movlb	0	; () banked
  6803  000EDA  AF80               	btfss	(___ftadd@f2+2)& (0+255),7,b
  6804  000EDC  D020               	goto	l6582
  6805                           
  6806                           ; BSR set to: 0
  6807  000EDE  0EFF               	movlw	255
  6808  000EE0  0100               	movlb	0	; () banked
  6809  000EE2  0100               	movlb	0	; () banked
  6810  000EE4  1B7E               	xorwf	___ftadd@f2& (0+255),f,b
  6811  000EE6  0EFF               	movlw	255
  6812  000EE8  0100               	movlb	0	; () banked
  6813  000EEA  0100               	movlb	0	; () banked
  6814  000EEC  1B7F               	xorwf	(___ftadd@f2+1)& (0+255),f,b
  6815  000EEE  0EFF               	movlw	255
  6816  000EF0  0100               	movlb	0	; () banked
  6817  000EF2  0100               	movlb	0	; () banked
  6818  000EF4  1B80               	xorwf	(___ftadd@f2+2)& (0+255),f,b
  6819  000EF6  0E01               	movlw	1
  6820  000EF8  0100               	movlb	0	; () banked
  6821  000EFA  0100               	movlb	0	; () banked
  6822  000EFC  277E               	addwf	___ftadd@f2& (0+255),f,b
  6823  000EFE  0E00               	movlw	0
  6824  000F00  0100               	movlb	0	; () banked
  6825  000F02  0100               	movlb	0	; () banked
  6826  000F04  237F               	addwfc	(___ftadd@f2+1)& (0+255),f,b
  6827  000F06  0E00               	movlw	0
  6828  000F08  0100               	movlb	0	; () banked
  6829  000F0A  0100               	movlb	0	; () banked
  6830  000F0C  2380               	addwfc	(___ftadd@f2+2)& (0+255),f,b
  6831                           
  6832                           ; BSR set to: 0
  6833  000F0E  0100               	movlb	0	; () banked
  6834  000F10  6F81               	movwf	??___ftadd& (0+255),b
  6835  000F12  0E01               	movlw	1
  6836  000F14  0100               	movlb	0	; () banked
  6837  000F16  0100               	movlb	0	; () banked
  6838  000F18  6F87               	movwf	___ftadd@sign& (0+255),b
  6839  000F1A  0100               	movlb	0	; () banked
  6840  000F1C  5181               	movf	??___ftadd& (0+255),w,b
  6841  000F1E                     l6582:
  6842                           
  6843                           ; BSR set to: 0
  6844  000F1E  C07E  F016         	movff	___ftadd@f2,___ftpack@arg
  6845  000F22  C07F  F017         	movff	___ftadd@f2+1,___ftpack@arg+1
  6846  000F26  C080  F018         	movff	___ftadd@f2+2,___ftpack@arg+2
  6847  000F2A  C089  F019         	movff	___ftadd@exp1,___ftpack@exp
  6848  000F2E  C087  F01A         	movff	___ftadd@sign,___ftpack@sign
  6849  000F32  ECA9  F010         	call	___ftpack	;wreg free
  6850  000F36  C016  F07B         	movff	?___ftpack,?___ftadd
  6851  000F3A  C017  F07C         	movff	?___ftpack+1,?___ftadd+1
  6852  000F3E  C018  F07D         	movff	?___ftpack+2,?___ftadd+2
  6853  000F42  0012               	return	
  6854  000F44                     __end_of___ftadd:
  6855                           	opt stack 0
  6856                           tblptru	equ	0xFF8
  6857                           tblptrh	equ	0xFF7
  6858                           tblptrl	equ	0xFF6
  6859                           tablat	equ	0xFF5
  6860                           prodh	equ	0xFF4
  6861                           prodl	equ	0xFF3
  6862                           intcon	equ	0xFF2
  6863                           postinc0	equ	0xFEE
  6864                           wreg	equ	0xFE8
  6865                           postinc1	equ	0xFE6
  6866                           postdec1	equ	0xFE5
  6867                           fsr1l	equ	0xFE1
  6868                           indf2	equ	0xFDF
  6869                           postinc2	equ	0xFDE
  6870                           postdec2	equ	0xFDD
  6871                           fsr2h	equ	0xFDA
  6872                           fsr2l	equ	0xFD9
  6873                           status	equ	0xFD8
  6874                           
  6875 ;; *************** function _Tomcat_Claw *****************
  6876 ;; Defined at:
  6877 ;;		line 247 in file "Tomcat_V_driver.c"
  6878 ;; Parameters:    Size  Location     Type
  6879 ;;  grip            2   21[COMRAM] int 
  6880 ;;  wrist           2   23[COMRAM] int 
  6881 ;; Auto vars:     Size  Location     Type
  6882 ;;		None
  6883 ;; Return value:  Size  Location     Type
  6884 ;;		None               void
  6885 ;; Registers used:
  6886 ;;		wreg, status,2, status,0
  6887 ;; Tracked objects:
  6888 ;;		On entry : 0/0
  6889 ;;		On exit  : 0/0
  6890 ;;		Unchanged: 0/0
  6891 ;; Data sizes:     COMRAM   BANK0   BANK1   BANK2   BANK3   BANK4   BANK5
  6892 ;;      Params:         4       0       0       0       0       0       0
  6893 ;;      Locals:         0       0       0       0       0       0       0
  6894 ;;      Temps:          0       0       0       0       0       0       0
  6895 ;;      Totals:         4       0       0       0       0       0       0
  6896 ;;Total ram usage:        4 bytes
  6897 ;; Hardware stack levels used:    1
  6898 ;; Hardware stack levels required when called:    3
  6899 ;; This function calls:
  6900 ;;		Nothing
  6901 ;; This function is called by:
  6902 ;;		_main
  6903 ;; This function uses a non-reentrant model
  6904 ;;
  6905                           
  6906                           	psect	text33
  6907  002550                     __ptext33:
  6908                           	opt stack 0
  6909  002550                     _Tomcat_Claw:
  6910                           	opt stack 27
  6911                           
  6912                           ;Tomcat_V_driver.c: 249: if (grip > 127)
  6913                           
  6914                           ;incstack = 0
  6915  002550  5017               	movf	Tomcat_Claw@grip+1,w,c
  6916  002552  0A80               	xorlw	128
  6917  002554  0F80               	addlw	-128
  6918  002556  0E80               	movlw	128
  6919  002558  B4D8               	btfsc	status,2,c
  6920  00255A  5C16               	subwf	Tomcat_Claw@grip,w,c
  6921  00255C  A0D8               	btfss	status,0,c
  6922  00255E  D002               	goto	l544
  6923                           
  6924                           ;Tomcat_V_driver.c: 250: LATEbits.LATE1 = 1;
  6925  002560  828D               	bsf	3981,1,c	;volatile
  6926  002562  D001               	goto	l5108
  6927  002564                     l544:
  6928                           
  6929                           ;Tomcat_V_driver.c: 251: else
  6930                           ;Tomcat_V_driver.c: 252: LATEbits.LATE1 = 0;
  6931  002564  928D               	bcf	3981,1,c	;volatile
  6932  002566                     l5108:
  6933                           
  6934                           ;Tomcat_V_driver.c: 254: if (grip == 127)
  6935  002566  5016               	movf	Tomcat_Claw@grip,w,c
  6936  002568  0A7F               	xorlw	127
  6937  00256A  1017               	iorwf	Tomcat_Claw@grip+1,w,c
  6938  00256C  A4D8               	btfss	status,2,c
  6939  00256E  D002               	goto	l546
  6940                           
  6941                           ;Tomcat_V_driver.c: 255: LATEbits.LATE2 = 0;
  6942  002570  948D               	bcf	3981,2,c	;volatile
  6943  002572  D001               	goto	l5112
  6944  002574                     l546:
  6945                           
  6946                           ;Tomcat_V_driver.c: 256: else
  6947                           ;Tomcat_V_driver.c: 257: LATEbits.LATE2 = 1;
  6948  002574  848D               	bsf	3981,2,c	;volatile
  6949  002576                     l5112:
  6950                           
  6951                           ;Tomcat_V_driver.c: 259: if (wrist > 127)
  6952  002576  5019               	movf	Tomcat_Claw@wrist+1,w,c
  6953  002578  0A80               	xorlw	128
  6954  00257A  0F80               	addlw	-128
  6955  00257C  0E80               	movlw	128
  6956  00257E  B4D8               	btfsc	status,2,c
  6957  002580  5C18               	subwf	Tomcat_Claw@wrist,w,c
  6958  002582  A0D8               	btfss	status,0,c
  6959  002584  D002               	goto	l548
  6960                           
  6961                           ;Tomcat_V_driver.c: 260: LATBbits.LATB7 = 1;
  6962  002586  8E8A               	bsf	3978,7,c	;volatile
  6963  002588  D001               	goto	l5116
  6964  00258A                     l548:
  6965                           
  6966                           ;Tomcat_V_driver.c: 261: else
  6967                           ;Tomcat_V_driver.c: 262: LATBbits.LATB7 = 0;
  6968  00258A  9E8A               	bcf	3978,7,c	;volatile
  6969  00258C                     l5116:
  6970                           
  6971                           ;Tomcat_V_driver.c: 264: if (wrist == 127)
  6972  00258C  5018               	movf	Tomcat_Claw@wrist,w,c
  6973  00258E  0A7F               	xorlw	127
  6974  002590  1019               	iorwf	Tomcat_Claw@wrist+1,w,c
  6975  002592  A4D8               	btfss	status,2,c
  6976  002594  D002               	goto	l550
  6977                           
  6978                           ;Tomcat_V_driver.c: 265: LATCbits.LATC0 = 0;
  6979  002596  908B               	bcf	3979,0,c	;volatile
  6980  002598  0012               	return	
  6981  00259A                     l550:
  6982                           
  6983                           ;Tomcat_V_driver.c: 266: else
  6984                           ;Tomcat_V_driver.c: 267: LATCbits.LATC0 = 1;
  6985  00259A  808B               	bsf	3979,0,c	;volatile
  6986  00259C  0012               	return	
  6987  00259E                     __end_of_Tomcat_Claw:
  6988                           	opt stack 0
  6989                           tblptru	equ	0xFF8
  6990                           tblptrh	equ	0xFF7
  6991                           tblptrl	equ	0xFF6
  6992                           tablat	equ	0xFF5
  6993                           prodh	equ	0xFF4
  6994                           prodl	equ	0xFF3
  6995                           intcon	equ	0xFF2
  6996                           postinc0	equ	0xFEE
  6997                           wreg	equ	0xFE8
  6998                           postinc1	equ	0xFE6
  6999                           postdec1	equ	0xFE5
  7000                           fsr1l	equ	0xFE1
  7001                           indf2	equ	0xFDF
  7002                           postinc2	equ	0xFDE
  7003                           postdec2	equ	0xFDD
  7004                           fsr2h	equ	0xFDA
  7005                           fsr2l	equ	0xFD9
  7006                           status	equ	0xFD8
  7007                           
  7008 ;; *************** function _Tomcat_Camera *****************
  7009 ;; Defined at:
  7010 ;;		line 308 in file "Tomcat_V_driver.c"
  7011 ;; Parameters:    Size  Location     Type
  7012 ;;  pan             2   30[COMRAM] int 
  7013 ;;  tilt            2   32[COMRAM] int 
  7014 ;; Auto vars:     Size  Location     Type
  7015 ;;  tilt_pos        2   36[COMRAM] int 
  7016 ;;  pan_pos         2   34[COMRAM] int 
  7017 ;; Return value:  Size  Location     Type
  7018 ;;		None               void
  7019 ;; Registers used:
  7020 ;;		wreg, status,2, status,0, cstack
  7021 ;; Tracked objects:
  7022 ;;		On entry : 0/0
  7023 ;;		On exit  : 0/0
  7024 ;;		Unchanged: 0/0
  7025 ;; Data sizes:     COMRAM   BANK0   BANK1   BANK2   BANK3   BANK4   BANK5
  7026 ;;      Params:         4       0       0       0       0       0       0
  7027 ;;      Locals:         4       0       0       0       0       0       0
  7028 ;;      Temps:          0       0       0       0       0       0       0
  7029 ;;      Totals:         8       0       0       0       0       0       0
  7030 ;;Total ram usage:        8 bytes
  7031 ;; Hardware stack levels used:    1
  7032 ;; Hardware stack levels required when called:    4
  7033 ;; This function calls:
  7034 ;;		_analogRead
  7035 ;; This function is called by:
  7036 ;;		_main
  7037 ;; This function uses a non-reentrant model
  7038 ;;
  7039                           
  7040                           	psect	text34
  7041  002972                     __ptext34:
  7042                           	opt stack 0
  7043  002972                     _Tomcat_Camera:
  7044                           	opt stack 26
  7045                           
  7046                           ;Tomcat_V_driver.c: 309: int pan_pos = analogRead(4);
  7047                           
  7048                           ;incstack = 0
  7049  002972  0E04               	movlw	4
  7050  002974  EC09  F014         	call	_analogRead
  7051  002978  C016  F023         	movff	?_analogRead,Tomcat_Camera@pan_pos
  7052  00297C  C017  F024         	movff	?_analogRead+1,Tomcat_Camera@pan_pos+1
  7053                           
  7054                           ;Tomcat_V_driver.c: 310: int tilt_pos = analogRead(5);
  7055  002980  0E05               	movlw	5
  7056  002982  EC09  F014         	call	_analogRead
  7057  002986  C016  F025         	movff	?_analogRead,Tomcat_Camera@tilt_pos
  7058  00298A  C017  F026         	movff	?_analogRead+1,Tomcat_Camera@tilt_pos+1
  7059  00298E  0012               	return	
  7060  002990                     __end_of_Tomcat_Camera:
  7061                           	opt stack 0
  7062                           tblptru	equ	0xFF8
  7063                           tblptrh	equ	0xFF7
  7064                           tblptrl	equ	0xFF6
  7065                           tablat	equ	0xFF5
  7066                           prodh	equ	0xFF4
  7067                           prodl	equ	0xFF3
  7068                           intcon	equ	0xFF2
  7069                           postinc0	equ	0xFEE
  7070                           wreg	equ	0xFE8
  7071                           postinc1	equ	0xFE6
  7072                           postdec1	equ	0xFE5
  7073                           fsr1l	equ	0xFE1
  7074                           indf2	equ	0xFDF
  7075                           postinc2	equ	0xFDE
  7076                           postdec2	equ	0xFDD
  7077                           fsr2h	equ	0xFDA
  7078                           fsr2l	equ	0xFD9
  7079                           status	equ	0xFD8
  7080                           
  7081 ;; *************** function _Thruster_Driver *****************
  7082 ;; Defined at:
  7083 ;;		line 92 in file "Tomcat_V_driver.c"
  7084 ;; Parameters:    Size  Location     Type
  7085 ;;  input           2   42[BANK0 ] int 
  7086 ;;  thruster        1   44[BANK0 ] unsigned char 
  7087 ;; Auto vars:     Size  Location     Type
  7088 ;;  dc              2   52[BANK0 ] int 
  7089 ;;  dir             1   51[BANK0 ] unsigned char 
  7090 ;; Return value:  Size  Location     Type
  7091 ;;		None               void
  7092 ;; Registers used:
  7093 ;;		wreg, status,2, status,0, prodl, cstack
  7094 ;; Tracked objects:
  7095 ;;		On entry : 0/0
  7096 ;;		On exit  : 0/0
  7097 ;;		Unchanged: 0/0
  7098 ;; Data sizes:     COMRAM   BANK0   BANK1   BANK2   BANK3   BANK4   BANK5
  7099 ;;      Params:         0       3       0       0       0       0       0
  7100 ;;      Locals:         0       3       0       0       0       0       0
  7101 ;;      Temps:          0       6       0       0       0       0       0
  7102 ;;      Totals:         0      12       0       0       0       0       0
  7103 ;;Total ram usage:       12 bytes
  7104 ;; Hardware stack levels used:    1
  7105 ;; Hardware stack levels required when called:    5
  7106 ;; This function calls:
  7107 ;;		_SetDCEPWM1
  7108 ;;		_SetDCEPWM2
  7109 ;;		_SetDCEPWM3
  7110 ;;		_SetDCPWM4
  7111 ;;		___awtoft
  7112 ;;		___ftdiv
  7113 ;;		___ftmul
  7114 ;;		___fttol
  7115 ;; This function is called by:
  7116 ;;		_main
  7117 ;; This function uses a non-reentrant model
  7118 ;;
  7119                           
  7120                           	psect	text35
  7121  000F44                     __ptext35:
  7122                           	opt stack 0
  7123  000F44                     _Thruster_Driver:
  7124                           	opt stack 25
  7125                           
  7126                           ;Tomcat_V_driver.c: 93: char dir = 0;
  7127                           
  7128                           ;incstack = 0
  7129  000F44  0100               	movlb	0	; () banked
  7130  000F46  6F8D               	movwf	??_Thruster_Driver& (0+255),b
  7131  000F48  0E00               	movlw	0
  7132  000F4A  0100               	movlb	0	; () banked
  7133  000F4C  0100               	movlb	0	; () banked
  7134  000F4E  6F93               	movwf	Thruster_Driver@dir& (0+255),b
  7135  000F50  0100               	movlb	0	; () banked
  7136  000F52  518D               	movf	??_Thruster_Driver& (0+255),w,b
  7137                           
  7138                           ; BSR set to: 0
  7139                           ;Tomcat_V_driver.c: 94: int dc = 0;
  7140  000F54  0E00               	movlw	0
  7141  000F56  0100               	movlb	0	; () banked
  7142  000F58  0100               	movlb	0	; () banked
  7143  000F5A  6F95               	movwf	(Thruster_Driver@dc+1)& (0+255),b
  7144  000F5C  0E00               	movlw	0
  7145  000F5E  0100               	movlb	0	; () banked
  7146  000F60  6F94               	movwf	Thruster_Driver@dc& (0+255),b
  7147                           
  7148                           ; BSR set to: 0
  7149                           ;Tomcat_V_driver.c: 95: if (input > 134)
  7150  000F62  0100               	movlb	0	; () banked
  7151  000F64  0100               	movlb	0	; () banked
  7152  000F66  518B               	movf	(Thruster_Driver@input+1)& (0+255),w,b
  7153  000F68  0A80               	xorlw	128
  7154  000F6A  0F80               	addlw	-128
  7155  000F6C  0E87               	movlw	135
  7156  000F6E  B4D8               	btfsc	status,2,c
  7157  000F70  5D8A               	subwf	Thruster_Driver@input& (0+255),w,b
  7158  000F72  A0D8               	btfss	status,0,c
  7159  000F74  D051               	goto	l8318
  7160                           
  7161                           ; BSR set to: 0
  7162                           ;Tomcat_V_driver.c: 96: {
  7163                           ;Tomcat_V_driver.c: 97: dir = 1;
  7164  000F76  0100               	movlb	0	; () banked
  7165  000F78  6F8D               	movwf	??_Thruster_Driver& (0+255),b
  7166  000F7A  0E01               	movlw	1
  7167  000F7C  0100               	movlb	0	; () banked
  7168  000F7E  0100               	movlb	0	; () banked
  7169  000F80  6F93               	movwf	Thruster_Driver@dir& (0+255),b
  7170  000F82  0100               	movlb	0	; () banked
  7171  000F84  518D               	movf	??_Thruster_Driver& (0+255),w,b
  7172                           
  7173                           ; BSR set to: 0
  7174                           ;Tomcat_V_driver.c: 98: dc = 256 * ((input - 127) / 126.0);
  7175  000F86  0E00               	movlw	0
  7176  000F88  0100               	movlb	0	; () banked
  7177  000F8A  0100               	movlb	0	; () banked
  7178  000F8C  6F69               	movwf	___ftmul@f2& (0+255),b
  7179  000F8E  0E80               	movlw	128
  7180  000F90  0100               	movlb	0	; () banked
  7181  000F92  0100               	movlb	0	; () banked
  7182  000F94  6F6A               	movwf	(___ftmul@f2+1)& (0+255),b
  7183  000F96  0E43               	movlw	67
  7184  000F98  0100               	movlb	0	; () banked
  7185  000F9A  0100               	movlb	0	; () banked
  7186  000F9C  6F6B               	movwf	(___ftmul@f2+2)& (0+255),b
  7187  000F9E  0E00               	movlw	0
  7188  000FA0  0100               	movlb	0	; () banked
  7189  000FA2  0100               	movlb	0	; () banked
  7190  000FA4  6F63               	movwf	___ftdiv@f2& (0+255),b
  7191  000FA6  0EFC               	movlw	252
  7192  000FA8  0100               	movlb	0	; () banked
  7193  000FAA  0100               	movlb	0	; () banked
  7194  000FAC  6F64               	movwf	(___ftdiv@f2+1)& (0+255),b
  7195  000FAE  0E42               	movlw	66
  7196  000FB0  0100               	movlb	0	; () banked
  7197  000FB2  0100               	movlb	0	; () banked
  7198  000FB4  6F65               	movwf	(___ftdiv@f2+2)& (0+255),b
  7199  000FB6  0E81               	movlw	129
  7200  000FB8  0100               	movlb	0	; () banked
  7201  000FBA  0100               	movlb	0	; () banked
  7202  000FBC  258A               	addwf	Thruster_Driver@input& (0+255),w,b
  7203  000FBE  6E1E               	movwf	___awtoft@c,c
  7204  000FC0  0EFF               	movlw	255
  7205  000FC2  0100               	movlb	0	; () banked
  7206  000FC4  0100               	movlb	0	; () banked
  7207  000FC6  218B               	addwfc	(Thruster_Driver@input+1)& (0+255),w,b
  7208  000FC8  6E1F               	movwf	___awtoft@c+1,c
  7209  000FCA  EC2E  F012         	call	___awtoft	;wreg free
  7210  000FCE  C01E  F060         	movff	?___awtoft,___ftdiv@f1
  7211  000FD2  C01F  F061         	movff	?___awtoft+1,___ftdiv@f1+1
  7212  000FD6  C020  F062         	movff	?___awtoft+2,___ftdiv@f1+2
  7213  000FDA  ECE3  F00C         	call	___ftdiv	;wreg free
  7214  000FDE  C060  F066         	movff	?___ftdiv,___ftmul@f1
  7215  000FE2  C061  F067         	movff	?___ftdiv+1,___ftmul@f1+1
  7216  000FE6  C062  F068         	movff	?___ftdiv+2,___ftmul@f1+2
  7217  000FEA  ECC2  F008         	call	___ftmul	;wreg free
  7218  000FEE  C066  F07B         	movff	?___ftmul,___fttol@f1
  7219  000FF2  C067  F07C         	movff	?___ftmul+1,___fttol@f1+1
  7220  000FF6  C068  F07D         	movff	?___ftmul+2,___fttol@f1+2
  7221  000FFA  ECAE  F009         	call	___fttol	;wreg free
  7222  000FFE  C07B  F08D         	movff	?___fttol,??_Thruster_Driver
  7223  001002  C07C  F08E         	movff	?___fttol+1,??_Thruster_Driver+1
  7224  001006  C07D  F08F         	movff	?___fttol+2,??_Thruster_Driver+2
  7225  00100A  C07E  F090         	movff	?___fttol+3,??_Thruster_Driver+3
  7226  00100E  C08D  F094         	movff	??_Thruster_Driver,Thruster_Driver@dc
  7227  001012  C08E  F095         	movff	??_Thruster_Driver+1,Thruster_Driver@dc+1
  7228                           
  7229                           ;Tomcat_V_driver.c: 99: }
  7230  001016  D0A6               	goto	l8336
  7231  001018                     l8318:
  7232                           
  7233                           ;Tomcat_V_driver.c: 100: else if (input < 120)
  7234  001018  0100               	movlb	0	; () banked
  7235  00101A  0100               	movlb	0	; () banked
  7236  00101C  518B               	movf	(Thruster_Driver@input+1)& (0+255),w,b
  7237  00101E  0A80               	xorlw	128
  7238  001020  6EF3               	movwf	prodl,c
  7239  001022  0E80               	movlw	128
  7240  001024  5CF3               	subwf	prodl,w,c
  7241  001026  0E78               	movlw	120
  7242  001028  B4D8               	btfsc	status,2,c
  7243  00102A  5D8A               	subwf	Thruster_Driver@input& (0+255),w,b
  7244  00102C  B0D8               	btfsc	status,0,c
  7245  00102E  D05A               	goto	l8324
  7246                           
  7247                           ; BSR set to: 0
  7248                           ;Tomcat_V_driver.c: 101: {
  7249                           ;Tomcat_V_driver.c: 102: dir = 0;
  7250  001030  0100               	movlb	0	; () banked
  7251  001032  6F8D               	movwf	??_Thruster_Driver& (0+255),b
  7252  001034  0E00               	movlw	0
  7253  001036  0100               	movlb	0	; () banked
  7254  001038  0100               	movlb	0	; () banked
  7255  00103A  6F93               	movwf	Thruster_Driver@dir& (0+255),b
  7256  00103C  0100               	movlb	0	; () banked
  7257  00103E  518D               	movf	??_Thruster_Driver& (0+255),w,b
  7258                           
  7259                           ; BSR set to: 0
  7260                           ;Tomcat_V_driver.c: 103: dc = 256 * ((126 - input) / 126.0);
  7261  001040  0E00               	movlw	0
  7262  001042  0100               	movlb	0	; () banked
  7263  001044  0100               	movlb	0	; () banked
  7264  001046  6F69               	movwf	___ftmul@f2& (0+255),b
  7265  001048  0E80               	movlw	128
  7266  00104A  0100               	movlb	0	; () banked
  7267  00104C  0100               	movlb	0	; () banked
  7268  00104E  6F6A               	movwf	(___ftmul@f2+1)& (0+255),b
  7269  001050  0E43               	movlw	67
  7270  001052  0100               	movlb	0	; () banked
  7271  001054  0100               	movlb	0	; () banked
  7272  001056  6F6B               	movwf	(___ftmul@f2+2)& (0+255),b
  7273  001058  0E00               	movlw	0
  7274  00105A  0100               	movlb	0	; () banked
  7275  00105C  0100               	movlb	0	; () banked
  7276  00105E  6F63               	movwf	___ftdiv@f2& (0+255),b
  7277  001060  0EFC               	movlw	252
  7278  001062  0100               	movlb	0	; () banked
  7279  001064  0100               	movlb	0	; () banked
  7280  001066  6F64               	movwf	(___ftdiv@f2+1)& (0+255),b
  7281  001068  0E42               	movlw	66
  7282  00106A  0100               	movlb	0	; () banked
  7283  00106C  0100               	movlb	0	; () banked
  7284  00106E  6F65               	movwf	(___ftdiv@f2+2)& (0+255),b
  7285  001070  0100               	movlb	0	; () banked
  7286  001072  C08A  F08D         	movff	Thruster_Driver@input,??_Thruster_Driver
  7287  001076  0100               	movlb	0	; () banked
  7288  001078  C08B  F08E         	movff	Thruster_Driver@input+1,??_Thruster_Driver+1
  7289  00107C  0100               	movlb	0	; () banked
  7290  00107E  1F8D               	comf	??_Thruster_Driver& (0+255),f,b
  7291  001080  1F8E               	comf	(??_Thruster_Driver+1)& (0+255),f,b
  7292  001082  4B8D               	infsnz	??_Thruster_Driver& (0+255),f,b
  7293  001084  2B8E               	incf	(??_Thruster_Driver+1)& (0+255),f,b
  7294  001086  0E7E               	movlw	126
  7295  001088  0100               	movlb	0	; () banked
  7296  00108A  258D               	addwf	??_Thruster_Driver& (0+255),w,b
  7297  00108C  6E1E               	movwf	___awtoft@c,c
  7298  00108E  0E00               	movlw	0
  7299  001090  0100               	movlb	0	; () banked
  7300  001092  218E               	addwfc	(??_Thruster_Driver+1)& (0+255),w,b
  7301  001094  6E1F               	movwf	___awtoft@c+1,c
  7302  001096  EC2E  F012         	call	___awtoft	;wreg free
  7303  00109A  C01E  F060         	movff	?___awtoft,___ftdiv@f1
  7304  00109E  C01F  F061         	movff	?___awtoft+1,___ftdiv@f1+1
  7305  0010A2  C020  F062         	movff	?___awtoft+2,___ftdiv@f1+2
  7306  0010A6  ECE3  F00C         	call	___ftdiv	;wreg free
  7307  0010AA  C060  F066         	movff	?___ftdiv,___ftmul@f1
  7308  0010AE  C061  F067         	movff	?___ftdiv+1,___ftmul@f1+1
  7309  0010B2  C062  F068         	movff	?___ftdiv+2,___ftmul@f1+2
  7310  0010B6  ECC2  F008         	call	___ftmul	;wreg free
  7311  0010BA  C066  F07B         	movff	?___ftmul,___fttol@f1
  7312  0010BE  C067  F07C         	movff	?___ftmul+1,___fttol@f1+1
  7313  0010C2  C068  F07D         	movff	?___ftmul+2,___fttol@f1+2
  7314  0010C6  ECAE  F009         	call	___fttol	;wreg free
  7315  0010CA  C07B  F08F         	movff	?___fttol,??_Thruster_Driver+2
  7316  0010CE  C07C  F090         	movff	?___fttol+1,??_Thruster_Driver+3
  7317  0010D2  C07D  F091         	movff	?___fttol+2,??_Thruster_Driver+4
  7318  0010D6  C07E  F092         	movff	?___fttol+3,??_Thruster_Driver+5
  7319  0010DA  C08F  F094         	movff	??_Thruster_Driver+2,Thruster_Driver@dc
  7320  0010DE  C090  F095         	movff	??_Thruster_Driver+3,Thruster_Driver@dc+1
  7321                           
  7322                           ;Tomcat_V_driver.c: 104: }
  7323  0010E2  D040               	goto	l8336
  7324  0010E4                     l8324:
  7325                           
  7326                           ;Tomcat_V_driver.c: 105: else
  7327                           ;Tomcat_V_driver.c: 106: {
  7328                           ;Tomcat_V_driver.c: 107: dc=0;
  7329  0010E4  0E00               	movlw	0
  7330  0010E6  0100               	movlb	0	; () banked
  7331  0010E8  0100               	movlb	0	; () banked
  7332  0010EA  6F95               	movwf	(Thruster_Driver@dc+1)& (0+255),b
  7333  0010EC  0E00               	movlw	0
  7334  0010EE  0100               	movlb	0	; () banked
  7335  0010F0  6F94               	movwf	Thruster_Driver@dc& (0+255),b
  7336  0010F2  D038               	goto	l8336
  7337  0010F4                     l511:
  7338                           
  7339                           ; BSR set to: 0
  7340                           ;Tomcat_V_driver.c: 112: LATBbits.LATB3 = dir;
  7341  0010F4  0100               	movlb	0	; () banked
  7342  0010F6  0100               	movlb	0	; () banked
  7343  0010F8  B193               	btfsc	Thruster_Driver@dir& (0+255),0,b
  7344  0010FA  D002               	bra	u7575
  7345  0010FC  968A               	bcf	3978,3,c	;volatile
  7346  0010FE  D001               	bra	u7576
  7347  001100                     u7575:
  7348  001100  868A               	bsf	3978,3,c	;volatile
  7349  001102                     u7576:
  7350                           
  7351                           ;Tomcat_V_driver.c: 113: SetDCEPWM1(dc);
  7352  001102  C094  F016         	movff	Thruster_Driver@dc,SetDCEPWM1@dutycycle
  7353  001106  C095  F017         	movff	Thruster_Driver@dc+1,SetDCEPWM1@dutycycle+1
  7354  00110A  ECEC  F013         	call	_SetDCEPWM1	;wreg free
  7355                           
  7356                           ;Tomcat_V_driver.c: 115: break;
  7357  00110E  0012               	return	
  7358  001110                     l513:
  7359                           
  7360                           ; BSR set to: 0
  7361                           ;Tomcat_V_driver.c: 117: LATBbits.LATB4 = dir;
  7362  001110  0100               	movlb	0	; () banked
  7363  001112  0100               	movlb	0	; () banked
  7364  001114  B193               	btfsc	Thruster_Driver@dir& (0+255),0,b
  7365  001116  D002               	bra	u7585
  7366  001118  988A               	bcf	3978,4,c	;volatile
  7367  00111A  D001               	bra	u7586
  7368  00111C                     u7585:
  7369  00111C  888A               	bsf	3978,4,c	;volatile
  7370  00111E                     u7586:
  7371                           
  7372                           ;Tomcat_V_driver.c: 118: SetDCEPWM2(dc);
  7373  00111E  C094  F016         	movff	Thruster_Driver@dc,SetDCEPWM2@dutycycle
  7374  001122  C095  F017         	movff	Thruster_Driver@dc+1,SetDCEPWM2@dutycycle+1
  7375  001126  ECCF  F013         	call	_SetDCEPWM2	;wreg free
  7376                           
  7377                           ;Tomcat_V_driver.c: 119: break;
  7378  00112A  0012               	return	
  7379  00112C                     l514:
  7380                           
  7381                           ; BSR set to: 0
  7382                           ;Tomcat_V_driver.c: 121: LATBbits.LATB6 = dir;
  7383  00112C  0100               	movlb	0	; () banked
  7384  00112E  0100               	movlb	0	; () banked
  7385  001130  B193               	btfsc	Thruster_Driver@dir& (0+255),0,b
  7386  001132  D002               	bra	u7595
  7387  001134  9C8A               	bcf	3978,6,c	;volatile
  7388  001136  D001               	bra	u7596
  7389  001138                     u7595:
  7390  001138  8C8A               	bsf	3978,6,c	;volatile
  7391  00113A                     u7596:
  7392                           
  7393                           ;Tomcat_V_driver.c: 122: SetDCEPWM3(dc);
  7394  00113A  C094  F016         	movff	Thruster_Driver@dc,SetDCEPWM3@dutycycle
  7395  00113E  C095  F017         	movff	Thruster_Driver@dc+1,SetDCEPWM3@dutycycle+1
  7396  001142  EC39  F013         	call	_SetDCEPWM3	;wreg free
  7397                           
  7398                           ;Tomcat_V_driver.c: 123: break;
  7399  001146  0012               	return	
  7400  001148                     l515:
  7401                           
  7402                           ; BSR set to: 0
  7403                           ;Tomcat_V_driver.c: 125: LATDbits.LATD0 = dir;
  7404  001148  0100               	movlb	0	; () banked
  7405  00114A  0100               	movlb	0	; () banked
  7406  00114C  B193               	btfsc	Thruster_Driver@dir& (0+255),0,b
  7407  00114E  D002               	bra	u7605
  7408  001150  908C               	bcf	3980,0,c	;volatile
  7409  001152  D001               	bra	u7606
  7410  001154                     u7605:
  7411  001154  808C               	bsf	3980,0,c	;volatile
  7412  001156                     u7606:
  7413                           
  7414                           ;Tomcat_V_driver.c: 126: SetDCPWM4(dc);
  7415  001156  C094  F016         	movff	Thruster_Driver@dc,SetDCPWM4@dutycycle
  7416  00115A  C095  F017         	movff	Thruster_Driver@dc+1,SetDCPWM4@dutycycle+1
  7417  00115E  EC18  F013         	call	_SetDCPWM4	;wreg free
  7418                           
  7419                           ;Tomcat_V_driver.c: 127: break;
  7420  001162  0012               	return	
  7421  001164                     l8336:
  7422  001164  0100               	movlb	0	; () banked
  7423  001166  0100               	movlb	0	; () banked
  7424  001168  518C               	movf	Thruster_Driver@thruster& (0+255),w,b
  7425                           
  7426                           ; Switch size 1, requested type "space"
  7427                           ; Number of cases is 4, Range of values is 1 to 4
  7428                           ; switch strategies available:
  7429                           ; Name         Instructions Cycles
  7430                           ; simple_byte           13     7 (average)
  7431                           ;	Chosen strategy is simple_byte
  7432  00116A  0A01               	xorlw	1	; case 1
  7433  00116C  B4D8               	btfsc	status,2,c
  7434  00116E  D7C2               	goto	l511
  7435  001170  0A03               	xorlw	3	; case 2
  7436  001172  B4D8               	btfsc	status,2,c
  7437  001174  D7CD               	goto	l513
  7438  001176  0A01               	xorlw	1	; case 3
  7439  001178  B4D8               	btfsc	status,2,c
  7440  00117A  D7D8               	goto	l514
  7441  00117C  0A07               	xorlw	7	; case 4
  7442  00117E  A4D8               	btfss	status,2,c
  7443  001180  0012               	return	
  7444  001182  D7E2               	goto	l515
  7445  001184                     __end_of_Thruster_Driver:
  7446                           	opt stack 0
  7447                           tblptru	equ	0xFF8
  7448                           tblptrh	equ	0xFF7
  7449                           tblptrl	equ	0xFF6
  7450                           tablat	equ	0xFF5
  7451                           prodh	equ	0xFF4
  7452                           prodl	equ	0xFF3
  7453                           intcon	equ	0xFF2
  7454                           postinc0	equ	0xFEE
  7455                           wreg	equ	0xFE8
  7456                           postinc1	equ	0xFE6
  7457                           postdec1	equ	0xFE5
  7458                           fsr1l	equ	0xFE1
  7459                           indf2	equ	0xFDF
  7460                           postinc2	equ	0xFDE
  7461                           postdec2	equ	0xFDD
  7462                           fsr2h	equ	0xFDA
  7463                           fsr2l	equ	0xFD9
  7464                           status	equ	0xFD8
  7465                           
  7466 ;; *************** function ___fttol *****************
  7467 ;; Defined at:
  7468 ;;		line 44 in file "C:\Program Files (x86)\Microchip\xc8\v1.30\sources\common\fttol.c"
  7469 ;; Parameters:    Size  Location     Type
  7470 ;;  f1              3   27[BANK0 ] float 
  7471 ;; Auto vars:     Size  Location     Type
  7472 ;;  lval            4   37[BANK0 ] unsigned long 
  7473 ;;  exp1            1   41[BANK0 ] unsigned char 
  7474 ;;  sign1           1   36[BANK0 ] unsigned char 
  7475 ;; Return value:  Size  Location     Type
  7476 ;;                  4   27[BANK0 ] long 
  7477 ;; Registers used:
  7478 ;;		wreg, status,2, status,0
  7479 ;; Tracked objects:
  7480 ;;		On entry : 0/0
  7481 ;;		On exit  : 0/0
  7482 ;;		Unchanged: 0/0
  7483 ;; Data sizes:     COMRAM   BANK0   BANK1   BANK2   BANK3   BANK4   BANK5
  7484 ;;      Params:         0       4       0       0       0       0       0
  7485 ;;      Locals:         0       6       0       0       0       0       0
  7486 ;;      Temps:          0       5       0       0       0       0       0
  7487 ;;      Totals:         0      15       0       0       0       0       0
  7488 ;;Total ram usage:       15 bytes
  7489 ;; Hardware stack levels used:    1
  7490 ;; Hardware stack levels required when called:    3
  7491 ;; This function calls:
  7492 ;;		Nothing
  7493 ;; This function is called by:
  7494 ;;		_Thruster_Driver
  7495 ;;		_Tomcat_Depth
  7496 ;;		_Tomcat_Press_Int
  7497 ;;		_Tomcat_Temp
  7498 ;;		_Tomcat_Temp_Ex
  7499 ;;		_Tomcat_Heading
  7500 ;;		_Tomcat_Pitch
  7501 ;;		_Tomcat_Roll
  7502 ;; This function uses a non-reentrant model
  7503 ;;
  7504                           
  7505                           	psect	text36
  7506  00135C                     __ptext36:
  7507                           	opt stack 0
  7508  00135C                     ___fttol:
  7509                           	opt stack 26
  7510                           
  7511                           ;incstack = 0
  7512  00135C  0100               	movlb	0	; () banked
  7513  00135E  C07D  F07F         	movff	___fttol@f1+2,??___fttol
  7514  001362  0100               	movlb	0	; () banked
  7515  001364  6B80               	clrf	(??___fttol+1)& (0+255),b
  7516  001366  6B81               	clrf	(??___fttol+2)& (0+255),b
  7517  001368  0100               	movlb	0	; () banked
  7518  00136A  0100               	movlb	0	; () banked
  7519  00136C  357C               	rlcf	(___fttol@f1+1)& (0+255),w,b
  7520  00136E  0100               	movlb	0	; () banked
  7521  001370  377F               	rlcf	??___fttol& (0+255),f,b
  7522  001372  E301               	bnc	u4441
  7523  001374  8180               	bsf	(??___fttol+1)& (0+255),0,b
  7524  001376                     u4441:
  7525  001376  0100               	movlb	0	; () banked
  7526  001378  517F               	movf	??___fttol& (0+255),w,b
  7527  00137A  0100               	movlb	0	; () banked
  7528  00137C  0100               	movlb	0	; () banked
  7529  00137E  6F89               	movwf	___fttol@exp1& (0+255),b
  7530  001380  0100               	movlb	0	; () banked
  7531  001382  6789               	tstfsz	___fttol@exp1& (0+255),b
  7532  001384  D00E               	goto	l5642
  7533                           
  7534                           ; BSR set to: 0
  7535  001386  0E00               	movlw	0
  7536  001388  0100               	movlb	0	; () banked
  7537  00138A  0100               	movlb	0	; () banked
  7538  00138C  6F7B               	movwf	?___fttol& (0+255),b
  7539  00138E  0E00               	movlw	0
  7540  001390  0100               	movlb	0	; () banked
  7541  001392  6F7C               	movwf	(?___fttol+1)& (0+255),b
  7542  001394  0E00               	movlw	0
  7543  001396  0100               	movlb	0	; () banked
  7544  001398  6F7D               	movwf	(?___fttol+2)& (0+255),b
  7545  00139A  0E00               	movlw	0
  7546  00139C  0100               	movlb	0	; () banked
  7547  00139E  6F7E               	movwf	(?___fttol+3)& (0+255),b
  7548  0013A0  0012               	return	
  7549  0013A2                     l5642:
  7550                           
  7551                           ; BSR set to: 0
  7552  0013A2  0E17               	movlw	23
  7553  0013A4  0100               	movlb	0	; () banked
  7554  0013A6  6F7F               	movwf	??___fttol& (0+255),b
  7555  0013A8  0100               	movlb	0	; () banked
  7556  0013AA  C07B  F080         	movff	___fttol@f1,??___fttol+1
  7557  0013AE  0100               	movlb	0	; () banked
  7558  0013B0  C07C  F081         	movff	___fttol@f1+1,??___fttol+2
  7559  0013B4  0100               	movlb	0	; () banked
  7560  0013B6  C07D  F082         	movff	___fttol@f1+2,??___fttol+3
  7561  0013BA  0100               	movlb	0	; () banked
  7562  0013BC  297F               	incf	??___fttol& (0+255),w,b
  7563  0013BE  0100               	movlb	0	; () banked
  7564  0013C0  6F83               	movwf	(??___fttol+4)& (0+255),b
  7565  0013C2  D005               	goto	u4460
  7566  0013C4                     u4465:
  7567  0013C4  0100               	movlb	0	; () banked
  7568  0013C6  90D8               	bcf	status,0,c
  7569  0013C8  3382               	rrcf	(??___fttol+3)& (0+255),f,b
  7570  0013CA  3381               	rrcf	(??___fttol+2)& (0+255),f,b
  7571  0013CC  3380               	rrcf	(??___fttol+1)& (0+255),f,b
  7572  0013CE                     u4460:
  7573  0013CE  0100               	movlb	0	; () banked
  7574  0013D0  2F83               	decfsz	(??___fttol+4)& (0+255),f,b
  7575  0013D2  D7F8               	goto	u4465
  7576  0013D4  0100               	movlb	0	; () banked
  7577  0013D6  5180               	movf	(??___fttol+1)& (0+255),w,b
  7578  0013D8  0100               	movlb	0	; () banked
  7579  0013DA  0100               	movlb	0	; () banked
  7580  0013DC  6F84               	movwf	___fttol@sign1& (0+255),b
  7581                           
  7582                           ; BSR set to: 0
  7583  0013DE  0100               	movlb	0	; () banked
  7584  0013E0  0100               	movlb	0	; () banked
  7585  0013E2  8F7C               	bsf	(___fttol@f1+1)& (0+255),7,b
  7586                           
  7587                           ; BSR set to: 0
  7588  0013E4  0EFF               	movlw	255
  7589  0013E6  0100               	movlb	0	; () banked
  7590  0013E8  0100               	movlb	0	; () banked
  7591  0013EA  177B               	andwf	___fttol@f1& (0+255),f,b
  7592  0013EC  0EFF               	movlw	255
  7593  0013EE  0100               	movlb	0	; () banked
  7594  0013F0  0100               	movlb	0	; () banked
  7595  0013F2  177C               	andwf	(___fttol@f1+1)& (0+255),f,b
  7596  0013F4  0E00               	movlw	0
  7597  0013F6  0100               	movlb	0	; () banked
  7598  0013F8  0100               	movlb	0	; () banked
  7599  0013FA  177D               	andwf	(___fttol@f1+2)& (0+255),f,b
  7600                           
  7601                           ; BSR set to: 0
  7602  0013FC  0100               	movlb	0	; () banked
  7603  0013FE  0100               	movlb	0	; () banked
  7604  001400  517B               	movf	___fttol@f1& (0+255),w,b
  7605  001402  0100               	movlb	0	; () banked
  7606  001404  0100               	movlb	0	; () banked
  7607  001406  6F85               	movwf	___fttol@lval& (0+255),b
  7608  001408  0100               	movlb	0	; () banked
  7609  00140A  0100               	movlb	0	; () banked
  7610  00140C  517C               	movf	(___fttol@f1+1)& (0+255),w,b
  7611  00140E  0100               	movlb	0	; () banked
  7612  001410  6F86               	movwf	(___fttol@lval+1)& (0+255),b
  7613  001412  0100               	movlb	0	; () banked
  7614  001414  517D               	movf	(___fttol@f1+2)& (0+255),w,b
  7615  001416  0100               	movlb	0	; () banked
  7616  001418  6F87               	movwf	(___fttol@lval+2)& (0+255),b
  7617  00141A  0100               	movlb	0	; () banked
  7618  00141C  6B88               	clrf	(___fttol@lval+3)& (0+255),b
  7619                           
  7620                           ; BSR set to: 0
  7621  00141E  0E8E               	movlw	142
  7622  001420  0100               	movlb	0	; () banked
  7623  001422  0100               	movlb	0	; () banked
  7624  001424  5F89               	subwf	___fttol@exp1& (0+255),f,b
  7625                           
  7626                           ; BSR set to: 0
  7627  001426  0100               	movlb	0	; () banked
  7628  001428  0100               	movlb	0	; () banked
  7629  00142A  AF89               	btfss	___fttol@exp1& (0+255),7,b
  7630  00142C  D029               	goto	l5664
  7631                           
  7632                           ; BSR set to: 0
  7633  00142E  0100               	movlb	0	; () banked
  7634  001430  0100               	movlb	0	; () banked
  7635  001432  5189               	movf	___fttol@exp1& (0+255),w,b
  7636  001434  0A80               	xorlw	128
  7637  001436  0100               	movlb	0	; () banked
  7638  001438  6F7F               	movwf	??___fttol& (0+255),b
  7639  00143A  0EF1               	movlw	241
  7640  00143C  0A80               	xorlw	128
  7641  00143E  0100               	movlb	0	; () banked
  7642  001440  5D7F               	subwf	??___fttol& (0+255),w,b
  7643  001442  B0D8               	btfsc	status,0,c
  7644  001444  D00E               	goto	l5660
  7645                           
  7646                           ; BSR set to: 0
  7647  001446  0E00               	movlw	0
  7648  001448  0100               	movlb	0	; () banked
  7649  00144A  0100               	movlb	0	; () banked
  7650  00144C  6F7B               	movwf	?___fttol& (0+255),b
  7651  00144E  0E00               	movlw	0
  7652  001450  0100               	movlb	0	; () banked
  7653  001452  6F7C               	movwf	(?___fttol+1)& (0+255),b
  7654  001454  0E00               	movlw	0
  7655  001456  0100               	movlb	0	; () banked
  7656  001458  6F7D               	movwf	(?___fttol+2)& (0+255),b
  7657  00145A  0E00               	movlw	0
  7658  00145C  0100               	movlb	0	; () banked
  7659  00145E  6F7E               	movwf	(?___fttol+3)& (0+255),b
  7660  001460  0012               	return	
  7661  001462                     l5660:
  7662                           
  7663                           ; BSR set to: 0
  7664  001462  0100               	movlb	0	; () banked
  7665  001464  90D8               	bcf	status,0,c
  7666  001466  0100               	movlb	0	; () banked
  7667  001468  3388               	rrcf	(___fttol@lval+3)& (0+255),f,b
  7668  00146A  0100               	movlb	0	; () banked
  7669  00146C  3387               	rrcf	(___fttol@lval+2)& (0+255),f,b
  7670  00146E  0100               	movlb	0	; () banked
  7671  001470  3386               	rrcf	(___fttol@lval+1)& (0+255),f,b
  7672  001472  0100               	movlb	0	; () banked
  7673  001474  3385               	rrcf	___fttol@lval& (0+255),f,b
  7674                           
  7675                           ; BSR set to: 0
  7676  001476  0100               	movlb	0	; () banked
  7677  001478  0100               	movlb	0	; () banked
  7678  00147A  3F89               	incfsz	___fttol@exp1& (0+255),f,b
  7679  00147C  D7F2               	goto	l5660
  7680  00147E  D024               	goto	l5674
  7681  001480                     l5664:
  7682                           
  7683                           ; BSR set to: 0
  7684  001480  0E17               	movlw	23
  7685  001482  0100               	movlb	0	; () banked
  7686  001484  0100               	movlb	0	; () banked
  7687  001486  6589               	cpfsgt	___fttol@exp1& (0+255),b
  7688  001488  D01B               	goto	l5672
  7689                           
  7690                           ; BSR set to: 0
  7691  00148A  0E00               	movlw	0
  7692  00148C  0100               	movlb	0	; () banked
  7693  00148E  0100               	movlb	0	; () banked
  7694  001490  6F7B               	movwf	?___fttol& (0+255),b
  7695  001492  0E00               	movlw	0
  7696  001494  0100               	movlb	0	; () banked
  7697  001496  6F7C               	movwf	(?___fttol+1)& (0+255),b
  7698  001498  0E00               	movlw	0
  7699  00149A  0100               	movlb	0	; () banked
  7700  00149C  6F7D               	movwf	(?___fttol+2)& (0+255),b
  7701  00149E  0E00               	movlw	0
  7702  0014A0  0100               	movlb	0	; () banked
  7703  0014A2  6F7E               	movwf	(?___fttol+3)& (0+255),b
  7704  0014A4  0012               	return	
  7705  0014A6                     l5670:
  7706                           
  7707                           ; BSR set to: 0
  7708  0014A6  0100               	movlb	0	; () banked
  7709  0014A8  90D8               	bcf	status,0,c
  7710  0014AA  0100               	movlb	0	; () banked
  7711  0014AC  3785               	rlcf	___fttol@lval& (0+255),f,b
  7712  0014AE  0100               	movlb	0	; () banked
  7713  0014B0  3786               	rlcf	(___fttol@lval+1)& (0+255),f,b
  7714  0014B2  0100               	movlb	0	; () banked
  7715  0014B4  3787               	rlcf	(___fttol@lval+2)& (0+255),f,b
  7716  0014B6  0100               	movlb	0	; () banked
  7717  0014B8  3788               	rlcf	(___fttol@lval+3)& (0+255),f,b
  7718  0014BA  0100               	movlb	0	; () banked
  7719  0014BC  0100               	movlb	0	; () banked
  7720  0014BE  0789               	decf	___fttol@exp1& (0+255),f,b
  7721  0014C0                     l5672:
  7722                           
  7723                           ; BSR set to: 0
  7724  0014C0  0100               	movlb	0	; () banked
  7725  0014C2  0100               	movlb	0	; () banked
  7726  0014C4  6789               	tstfsz	___fttol@exp1& (0+255),b
  7727  0014C6  D7EF               	goto	l5670
  7728  0014C8                     l5674:
  7729                           
  7730                           ; BSR set to: 0
  7731  0014C8  0100               	movlb	0	; () banked
  7732  0014CA  0100               	movlb	0	; () banked
  7733  0014CC  5184               	movf	___fttol@sign1& (0+255),w,b
  7734  0014CE  B4D8               	btfsc	status,2,c
  7735  0014D0  D010               	goto	l5678
  7736                           
  7737                           ; BSR set to: 0
  7738  0014D2  0100               	movlb	0	; () banked
  7739  0014D4  0100               	movlb	0	; () banked
  7740  0014D6  1F88               	comf	(___fttol@lval+3)& (0+255),f,b
  7741  0014D8  0100               	movlb	0	; () banked
  7742  0014DA  1F87               	comf	(___fttol@lval+2)& (0+255),f,b
  7743  0014DC  0100               	movlb	0	; () banked
  7744  0014DE  1F86               	comf	(___fttol@lval+1)& (0+255),f,b
  7745  0014E0  0100               	movlb	0	; () banked
  7746  0014E2  6D85               	negf	___fttol@lval& (0+255),b
  7747  0014E4  0E00               	movlw	0
  7748  0014E6  0100               	movlb	0	; () banked
  7749  0014E8  2386               	addwfc	(___fttol@lval+1)& (0+255),f,b
  7750  0014EA  0100               	movlb	0	; () banked
  7751  0014EC  2387               	addwfc	(___fttol@lval+2)& (0+255),f,b
  7752  0014EE  0100               	movlb	0	; () banked
  7753  0014F0  2388               	addwfc	(___fttol@lval+3)& (0+255),f,b
  7754  0014F2                     l5678:
  7755                           
  7756                           ; BSR set to: 0
  7757  0014F2  C085  F07B         	movff	___fttol@lval,?___fttol
  7758  0014F6  C086  F07C         	movff	___fttol@lval+1,?___fttol+1
  7759  0014FA  C087  F07D         	movff	___fttol@lval+2,?___fttol+2
  7760  0014FE  C088  F07E         	movff	___fttol@lval+3,?___fttol+3
  7761  001502  0012               	return	
  7762  001504                     __end_of___fttol:
  7763                           	opt stack 0
  7764                           tblptru	equ	0xFF8
  7765                           tblptrh	equ	0xFF7
  7766                           tblptrl	equ	0xFF6
  7767                           tablat	equ	0xFF5
  7768                           prodh	equ	0xFF4
  7769                           prodl	equ	0xFF3
  7770                           intcon	equ	0xFF2
  7771                           postinc0	equ	0xFEE
  7772                           wreg	equ	0xFE8
  7773                           postinc1	equ	0xFE6
  7774                           postdec1	equ	0xFE5
  7775                           fsr1l	equ	0xFE1
  7776                           indf2	equ	0xFDF
  7777                           postinc2	equ	0xFDE
  7778                           postdec2	equ	0xFDD
  7779                           fsr2h	equ	0xFDA
  7780                           fsr2l	equ	0xFD9
  7781                           status	equ	0xFD8
  7782                           
  7783 ;; *************** function _SetDCPWM4 *****************
  7784 ;; Defined at:
  7785 ;;		line 17 in file "C:\Program Files (x86)\Microchip\xc8\v1.30\sources\pic18\plib\PWM\pw4setdc.c"
  7786 ;; Parameters:    Size  Location     Type
  7787 ;;  dutycycle       2   21[COMRAM] unsigned int 
  7788 ;; Auto vars:     Size  Location     Type
  7789 ;;  DCycle          2   25[COMRAM] struct PWMDC
  7790 ;; Return value:  Size  Location     Type
  7791 ;;		None               void
  7792 ;; Registers used:
  7793 ;;		wreg, status,2, status,0
  7794 ;; Tracked objects:
  7795 ;;		On entry : 0/0
  7796 ;;		On exit  : 0/0
  7797 ;;		Unchanged: 0/0
  7798 ;; Data sizes:     COMRAM   BANK0   BANK1   BANK2   BANK3   BANK4   BANK5
  7799 ;;      Params:         2       0       0       0       0       0       0
  7800 ;;      Locals:         2       0       0       0       0       0       0
  7801 ;;      Temps:          2       0       0       0       0       0       0
  7802 ;;      Totals:         6       0       0       0       0       0       0
  7803 ;;Total ram usage:        6 bytes
  7804 ;; Hardware stack levels used:    1
  7805 ;; Hardware stack levels required when called:    3
  7806 ;; This function calls:
  7807 ;;		Nothing
  7808 ;; This function is called by:
  7809 ;;		_Thruster_Driver
  7810 ;; This function uses a non-reentrant model
  7811 ;;
  7812                           
  7813                           	psect	text37
  7814  002630                     __ptext37:
  7815                           	opt stack 0
  7816  002630                     _SetDCPWM4:
  7817                           	opt stack 26
  7818                           
  7819                           ; BSR set to: 0
  7820                           ;incstack = 0
  7821  002630  C016  F018         	movff	SetDCPWM4@dutycycle,??_SetDCPWM4
  7822  002634  C017  F019         	movff	SetDCPWM4@dutycycle+1,??_SetDCPWM4+1
  7823  002638  0E06               	movlw	6
  7824  00263A                     u3585:
  7825  00263A  90D8               	bcf	status,0,c
  7826  00263C  3618               	rlcf	??_SetDCPWM4,f,c
  7827  00263E  3619               	rlcf	??_SetDCPWM4+1,f,c
  7828  002640  2EE8               	decfsz	wreg,f,c
  7829  002642  D7FB               	goto	u3585
  7830  002644  C018  F01A         	movff	??_SetDCPWM4,SetDCPWM4@DCycle
  7831  002648  C019  F01B         	movff	??_SetDCPWM4+1,SetDCPWM4@DCycle+1
  7832  00264C  C01B  FF58         	movff	SetDCPWM4@DCycle+1,3928	;volatile
  7833  002650  C01A  F018         	movff	SetDCPWM4@DCycle,??_SetDCPWM4
  7834  002654  90D8               	bcf	status,0,c
  7835  002656  3218               	rrcf	??_SetDCPWM4,f,c
  7836  002658  90D8               	bcf	status,0,c
  7837  00265A  3218               	rrcf	??_SetDCPWM4,f,c
  7838  00265C  0E30               	movlw	48
  7839  00265E  1618               	andwf	??_SetDCPWM4,f,c
  7840  002660  010F               	movlb	15	; () banked
  7841  002662  010F               	movlb	15	; () banked
  7842  002664  5157               	movf	87,w,b	;volatile
  7843  002666  0BCF               	andlw	207
  7844  002668  1018               	iorwf	??_SetDCPWM4,w,c
  7845  00266A  010F               	movlb	15	; () banked
  7846  00266C  010F               	movlb	15	; () banked
  7847  00266E  6F57               	movwf	87,b	;volatile
  7848                           
  7849                           ; BSR set to: 15
  7850  002670  0012               	return	
  7851  002672                     __end_of_SetDCPWM4:
  7852                           	opt stack 0
  7853                           tblptru	equ	0xFF8
  7854                           tblptrh	equ	0xFF7
  7855                           tblptrl	equ	0xFF6
  7856                           tablat	equ	0xFF5
  7857                           prodh	equ	0xFF4
  7858                           prodl	equ	0xFF3
  7859                           intcon	equ	0xFF2
  7860                           postinc0	equ	0xFEE
  7861                           wreg	equ	0xFE8
  7862                           postinc1	equ	0xFE6
  7863                           postdec1	equ	0xFE5
  7864                           fsr1l	equ	0xFE1
  7865                           indf2	equ	0xFDF
  7866                           postinc2	equ	0xFDE
  7867                           postdec2	equ	0xFDD
  7868                           fsr2h	equ	0xFDA
  7869                           fsr2l	equ	0xFD9
  7870                           status	equ	0xFD8
  7871                           
  7872 ;; *************** function _SetDCEPWM3 *****************
  7873 ;; Defined at:
  7874 ;;		line 16 in file "C:\Program Files (x86)\Microchip\xc8\v1.30\sources\pic18\plib\PWM\ew3setdc.c"
  7875 ;; Parameters:    Size  Location     Type
  7876 ;;  dutycycle       2   21[COMRAM] unsigned int 
  7877 ;; Auto vars:     Size  Location     Type
  7878 ;;  DCycle          2   25[COMRAM] struct PWMDC
  7879 ;; Return value:  Size  Location     Type
  7880 ;;		None               void
  7881 ;; Registers used:
  7882 ;;		wreg, status,2, status,0
  7883 ;; Tracked objects:
  7884 ;;		On entry : 0/0
  7885 ;;		On exit  : 0/0
  7886 ;;		Unchanged: 0/0
  7887 ;; Data sizes:     COMRAM   BANK0   BANK1   BANK2   BANK3   BANK4   BANK5
  7888 ;;      Params:         2       0       0       0       0       0       0
  7889 ;;      Locals:         2       0       0       0       0       0       0
  7890 ;;      Temps:          2       0       0       0       0       0       0
  7891 ;;      Totals:         6       0       0       0       0       0       0
  7892 ;;Total ram usage:        6 bytes
  7893 ;; Hardware stack levels used:    1
  7894 ;; Hardware stack levels required when called:    3
  7895 ;; This function calls:
  7896 ;;		Nothing
  7897 ;; This function is called by:
  7898 ;;		_Thruster_Driver
  7899 ;; This function uses a non-reentrant model
  7900 ;;
  7901                           
  7902                           	psect	text38
  7903  002672                     __ptext38:
  7904                           	opt stack 0
  7905  002672                     _SetDCEPWM3:
  7906                           	opt stack 26
  7907                           
  7908                           ; BSR set to: 15
  7909                           ;incstack = 0
  7910  002672  C016  F018         	movff	SetDCEPWM3@dutycycle,??_SetDCEPWM3
  7911  002676  C017  F019         	movff	SetDCEPWM3@dutycycle+1,??_SetDCEPWM3+1
  7912  00267A  0E06               	movlw	6
  7913  00267C                     u3575:
  7914  00267C  90D8               	bcf	status,0,c
  7915  00267E  3618               	rlcf	??_SetDCEPWM3,f,c
  7916  002680  3619               	rlcf	??_SetDCEPWM3+1,f,c
  7917  002682  2EE8               	decfsz	wreg,f,c
  7918  002684  D7FB               	goto	u3575
  7919  002686  C018  F01A         	movff	??_SetDCEPWM3,SetDCEPWM3@DCycle
  7920  00268A  C019  F01B         	movff	??_SetDCEPWM3+1,SetDCEPWM3@DCycle+1
  7921  00268E  C01B  FF5E         	movff	SetDCEPWM3@DCycle+1,3934	;volatile
  7922  002692  C01A  F018         	movff	SetDCEPWM3@DCycle,??_SetDCEPWM3
  7923  002696  90D8               	bcf	status,0,c
  7924  002698  3218               	rrcf	??_SetDCEPWM3,f,c
  7925  00269A  90D8               	bcf	status,0,c
  7926  00269C  3218               	rrcf	??_SetDCEPWM3,f,c
  7927  00269E  0E30               	movlw	48
  7928  0026A0  1618               	andwf	??_SetDCEPWM3,f,c
  7929  0026A2  010F               	movlb	15	; () banked
  7930  0026A4  010F               	movlb	15	; () banked
  7931  0026A6  515D               	movf	93,w,b	;volatile
  7932  0026A8  0BCF               	andlw	207
  7933  0026AA  1018               	iorwf	??_SetDCEPWM3,w,c
  7934  0026AC  010F               	movlb	15	; () banked
  7935  0026AE  010F               	movlb	15	; () banked
  7936  0026B0  6F5D               	movwf	93,b	;volatile
  7937                           
  7938                           ; BSR set to: 15
  7939  0026B2  0012               	return	
  7940  0026B4                     __end_of_SetDCEPWM3:
  7941                           	opt stack 0
  7942                           tblptru	equ	0xFF8
  7943                           tblptrh	equ	0xFF7
  7944                           tblptrl	equ	0xFF6
  7945                           tablat	equ	0xFF5
  7946                           prodh	equ	0xFF4
  7947                           prodl	equ	0xFF3
  7948                           intcon	equ	0xFF2
  7949                           postinc0	equ	0xFEE
  7950                           wreg	equ	0xFE8
  7951                           postinc1	equ	0xFE6
  7952                           postdec1	equ	0xFE5
  7953                           fsr1l	equ	0xFE1
  7954                           indf2	equ	0xFDF
  7955                           postinc2	equ	0xFDE
  7956                           postdec2	equ	0xFDD
  7957                           fsr2h	equ	0xFDA
  7958                           fsr2l	equ	0xFD9
  7959                           status	equ	0xFD8
  7960                           
  7961 ;; *************** function _SetDCEPWM2 *****************
  7962 ;; Defined at:
  7963 ;;		line 16 in file "C:\Program Files (x86)\Microchip\xc8\v1.30\sources\pic18\plib\PWM\ew2setdc.c"
  7964 ;; Parameters:    Size  Location     Type
  7965 ;;  dutycycle       2   21[COMRAM] unsigned int 
  7966 ;; Auto vars:     Size  Location     Type
  7967 ;;  DCycle          2   25[COMRAM] struct PWMDC
  7968 ;; Return value:  Size  Location     Type
  7969 ;;		None               void
  7970 ;; Registers used:
  7971 ;;		wreg, status,2, status,0
  7972 ;; Tracked objects:
  7973 ;;		On entry : 0/0
  7974 ;;		On exit  : 0/0
  7975 ;;		Unchanged: 0/0
  7976 ;; Data sizes:     COMRAM   BANK0   BANK1   BANK2   BANK3   BANK4   BANK5
  7977 ;;      Params:         2       0       0       0       0       0       0
  7978 ;;      Locals:         2       0       0       0       0       0       0
  7979 ;;      Temps:          2       0       0       0       0       0       0
  7980 ;;      Totals:         6       0       0       0       0       0       0
  7981 ;;Total ram usage:        6 bytes
  7982 ;; Hardware stack levels used:    1
  7983 ;; Hardware stack levels required when called:    3
  7984 ;; This function calls:
  7985 ;;		Nothing
  7986 ;; This function is called by:
  7987 ;;		_Thruster_Driver
  7988 ;; This function uses a non-reentrant model
  7989 ;;
  7990                           
  7991                           	psect	text39
  7992  00279E                     __ptext39:
  7993                           	opt stack 0
  7994  00279E                     _SetDCEPWM2:
  7995                           	opt stack 26
  7996                           
  7997                           ; BSR set to: 15
  7998                           ;incstack = 0
  7999  00279E  C016  F018         	movff	SetDCEPWM2@dutycycle,??_SetDCEPWM2
  8000  0027A2  C017  F019         	movff	SetDCEPWM2@dutycycle+1,??_SetDCEPWM2+1
  8001  0027A6  0E06               	movlw	6
  8002  0027A8                     u3565:
  8003  0027A8  90D8               	bcf	status,0,c
  8004  0027AA  3618               	rlcf	??_SetDCEPWM2,f,c
  8005  0027AC  3619               	rlcf	??_SetDCEPWM2+1,f,c
  8006  0027AE  2EE8               	decfsz	wreg,f,c
  8007  0027B0  D7FB               	goto	u3565
  8008  0027B2  C018  F01A         	movff	??_SetDCEPWM2,SetDCEPWM2@DCycle
  8009  0027B6  C019  F01B         	movff	??_SetDCEPWM2+1,SetDCEPWM2@DCycle+1
  8010  0027BA  C01B  FF67         	movff	SetDCEPWM2@DCycle+1,3943	;volatile
  8011  0027BE  C01A  F018         	movff	SetDCEPWM2@DCycle,??_SetDCEPWM2
  8012  0027C2  90D8               	bcf	status,0,c
  8013  0027C4  3218               	rrcf	??_SetDCEPWM2,f,c
  8014  0027C6  90D8               	bcf	status,0,c
  8015  0027C8  3218               	rrcf	??_SetDCEPWM2,f,c
  8016  0027CA  0E30               	movlw	48
  8017  0027CC  1618               	andwf	??_SetDCEPWM2,f,c
  8018  0027CE  5066               	movf	3942,w,c	;volatile
  8019  0027D0  0BCF               	andlw	207
  8020  0027D2  1018               	iorwf	??_SetDCEPWM2,w,c
  8021  0027D4  6E66               	movwf	3942,c	;volatile
  8022  0027D6  0012               	return	
  8023  0027D8                     __end_of_SetDCEPWM2:
  8024                           	opt stack 0
  8025                           tblptru	equ	0xFF8
  8026                           tblptrh	equ	0xFF7
  8027                           tblptrl	equ	0xFF6
  8028                           tablat	equ	0xFF5
  8029                           prodh	equ	0xFF4
  8030                           prodl	equ	0xFF3
  8031                           intcon	equ	0xFF2
  8032                           postinc0	equ	0xFEE
  8033                           wreg	equ	0xFE8
  8034                           postinc1	equ	0xFE6
  8035                           postdec1	equ	0xFE5
  8036                           fsr1l	equ	0xFE1
  8037                           indf2	equ	0xFDF
  8038                           postinc2	equ	0xFDE
  8039                           postdec2	equ	0xFDD
  8040                           fsr2h	equ	0xFDA
  8041                           fsr2l	equ	0xFD9
  8042                           status	equ	0xFD8
  8043                           
  8044 ;; *************** function _SetDCEPWM1 *****************
  8045 ;; Defined at:
  8046 ;;		line 32 in file "C:\Program Files (x86)\Microchip\xc8\v1.30\sources\pic18\plib\PWM\ew1setdc.c"
  8047 ;; Parameters:    Size  Location     Type
  8048 ;;  dutycycle       2   21[COMRAM] unsigned int 
  8049 ;; Auto vars:     Size  Location     Type
  8050 ;;  DCycle          2   25[COMRAM] struct PWMDC
  8051 ;; Return value:  Size  Location     Type
  8052 ;;		None               void
  8053 ;; Registers used:
  8054 ;;		wreg, status,2, status,0
  8055 ;; Tracked objects:
  8056 ;;		On entry : 0/0
  8057 ;;		On exit  : 0/0
  8058 ;;		Unchanged: 0/0
  8059 ;; Data sizes:     COMRAM   BANK0   BANK1   BANK2   BANK3   BANK4   BANK5
  8060 ;;      Params:         2       0       0       0       0       0       0
  8061 ;;      Locals:         2       0       0       0       0       0       0
  8062 ;;      Temps:          2       0       0       0       0       0       0
  8063 ;;      Totals:         6       0       0       0       0       0       0
  8064 ;;Total ram usage:        6 bytes
  8065 ;; Hardware stack levels used:    1
  8066 ;; Hardware stack levels required when called:    3
  8067 ;; This function calls:
  8068 ;;		Nothing
  8069 ;; This function is called by:
  8070 ;;		_Thruster_Driver
  8071 ;; This function uses a non-reentrant model
  8072 ;;
  8073                           
  8074                           	psect	text40
  8075  0027D8                     __ptext40:
  8076                           	opt stack 0
  8077  0027D8                     _SetDCEPWM1:
  8078                           	opt stack 26
  8079                           
  8080                           ;incstack = 0
  8081  0027D8  C016  F018         	movff	SetDCEPWM1@dutycycle,??_SetDCEPWM1
  8082  0027DC  C017  F019         	movff	SetDCEPWM1@dutycycle+1,??_SetDCEPWM1+1
  8083  0027E0  0E06               	movlw	6
  8084  0027E2                     u3555:
  8085  0027E2  90D8               	bcf	status,0,c
  8086  0027E4  3618               	rlcf	??_SetDCEPWM1,f,c
  8087  0027E6  3619               	rlcf	??_SetDCEPWM1+1,f,c
  8088  0027E8  2EE8               	decfsz	wreg,f,c
  8089  0027EA  D7FB               	goto	u3555
  8090  0027EC  C018  F01A         	movff	??_SetDCEPWM1,SetDCEPWM1@DCycle
  8091  0027F0  C019  F01B         	movff	??_SetDCEPWM1+1,SetDCEPWM1@DCycle+1
  8092  0027F4  C01B  FFBE         	movff	SetDCEPWM1@DCycle+1,4030	;volatile
  8093  0027F8  C01A  F018         	movff	SetDCEPWM1@DCycle,??_SetDCEPWM1
  8094  0027FC  90D8               	bcf	status,0,c
  8095  0027FE  3218               	rrcf	??_SetDCEPWM1,f,c
  8096  002800  90D8               	bcf	status,0,c
  8097  002802  3218               	rrcf	??_SetDCEPWM1,f,c
  8098  002804  0E30               	movlw	48
  8099  002806  1618               	andwf	??_SetDCEPWM1,f,c
  8100  002808  50BD               	movf	4029,w,c	;volatile
  8101  00280A  0BCF               	andlw	207
  8102  00280C  1018               	iorwf	??_SetDCEPWM1,w,c
  8103  00280E  6EBD               	movwf	4029,c	;volatile
  8104  002810  0012               	return	
  8105  002812                     __end_of_SetDCEPWM1:
  8106                           	opt stack 0
  8107                           tblptru	equ	0xFF8
  8108                           tblptrh	equ	0xFF7
  8109                           tblptrl	equ	0xFF6
  8110                           tablat	equ	0xFF5
  8111                           prodh	equ	0xFF4
  8112                           prodl	equ	0xFF3
  8113                           intcon	equ	0xFF2
  8114                           postinc0	equ	0xFEE
  8115                           wreg	equ	0xFE8
  8116                           postinc1	equ	0xFE6
  8117                           postdec1	equ	0xFE5
  8118                           fsr1l	equ	0xFE1
  8119                           indf2	equ	0xFDF
  8120                           postinc2	equ	0xFDE
  8121                           postdec2	equ	0xFDD
  8122                           fsr2h	equ	0xFDA
  8123                           fsr2l	equ	0xFD9
  8124                           status	equ	0xFD8
  8125                           
  8126 ;; *************** function ___awtoft *****************
  8127 ;; Defined at:
  8128 ;;		line 32 in file "C:\Program Files (x86)\Microchip\xc8\v1.30\sources\common\awtoft.c"
  8129 ;; Parameters:    Size  Location     Type
  8130 ;;  c               2   29[COMRAM] int 
  8131 ;; Auto vars:     Size  Location     Type
  8132 ;;  sign            1   34[COMRAM] unsigned char 
  8133 ;; Return value:  Size  Location     Type
  8134 ;;                  3   29[COMRAM] float 
  8135 ;; Registers used:
  8136 ;;		wreg, status,2, status,0, prodl, cstack
  8137 ;; Tracked objects:
  8138 ;;		On entry : 0/0
  8139 ;;		On exit  : 0/0
  8140 ;;		Unchanged: 0/0
  8141 ;; Data sizes:     COMRAM   BANK0   BANK1   BANK2   BANK3   BANK4   BANK5
  8142 ;;      Params:         3       0       0       0       0       0       0
  8143 ;;      Locals:         2       0       0       0       0       0       0
  8144 ;;      Temps:          1       0       0       0       0       0       0
  8145 ;;      Totals:         6       0       0       0       0       0       0
  8146 ;;Total ram usage:        6 bytes
  8147 ;; Hardware stack levels used:    1
  8148 ;; Hardware stack levels required when called:    4
  8149 ;; This function calls:
  8150 ;;		___ftpack
  8151 ;; This function is called by:
  8152 ;;		_Thruster_Driver
  8153 ;;		_log
  8154 ;;		_Tomcat_Heading
  8155 ;;		_Tomcat_Pitch
  8156 ;;		_Tomcat_Roll
  8157 ;; This function uses a non-reentrant model
  8158 ;;
  8159                           
  8160                           	psect	text41
  8161  00245C                     __ptext41:
  8162                           	opt stack 0
  8163  00245C                     ___awtoft:
  8164                           	opt stack 24
  8165                           
  8166                           ;incstack = 0
  8167  00245C  6E21               	movwf	??___awtoft& (0+255),c
  8168  00245E  0E00               	movlw	0
  8169  002460  6E23               	movwf	___awtoft@sign,c
  8170  002462  5021               	movf	??___awtoft& (0+255),w,c
  8171  002464  501F               	movf	___awtoft@c+1,w,c
  8172  002466  0A80               	xorlw	128
  8173  002468  6EF3               	movwf	prodl,c
  8174  00246A  0E80               	movlw	128
  8175  00246C  5CF3               	subwf	prodl,w,c
  8176  00246E  0E00               	movlw	0
  8177  002470  B4D8               	btfsc	status,2,c
  8178  002472  5C1E               	subwf	___awtoft@c,w,c
  8179  002474  B0D8               	btfsc	status,0,c
  8180  002476  D008               	goto	l6696
  8181  002478  6C1E               	negf	___awtoft@c,c
  8182  00247A  1E1F               	comf	___awtoft@c+1,f,c
  8183  00247C  B0D8               	btfsc	status,0,c
  8184  00247E  2A1F               	incf	___awtoft@c+1,f,c
  8185  002480  6E21               	movwf	??___awtoft& (0+255),c
  8186  002482  0E01               	movlw	1
  8187  002484  6E23               	movwf	___awtoft@sign,c
  8188  002486  5021               	movf	??___awtoft& (0+255),w,c
  8189  002488                     l6696:
  8190  002488  C01E  F016         	movff	___awtoft@c,___ftpack@arg
  8191  00248C  C01F  F017         	movff	___awtoft@c+1,___ftpack@arg+1
  8192  002490  6A18               	clrf	___ftpack@arg+2,c
  8193  002492  6E21               	movwf	??___awtoft& (0+255),c
  8194  002494  0E8E               	movlw	142
  8195  002496  6E19               	movwf	___ftpack@exp,c
  8196  002498  5021               	movf	??___awtoft& (0+255),w,c
  8197  00249A  C023  F01A         	movff	___awtoft@sign,___ftpack@sign
  8198  00249E  ECA9  F010         	call	___ftpack	;wreg free
  8199  0024A2  C016  F01E         	movff	?___ftpack,?___awtoft
  8200  0024A6  C017  F01F         	movff	?___ftpack+1,?___awtoft+1
  8201  0024AA  C018  F020         	movff	?___ftpack+2,?___awtoft+2
  8202  0024AE  0012               	return	
  8203  0024B0                     __end_of___awtoft:
  8204                           	opt stack 0
  8205                           tblptru	equ	0xFF8
  8206                           tblptrh	equ	0xFF7
  8207                           tblptrl	equ	0xFF6
  8208                           tablat	equ	0xFF5
  8209                           prodh	equ	0xFF4
  8210                           prodl	equ	0xFF3
  8211                           intcon	equ	0xFF2
  8212                           postinc0	equ	0xFEE
  8213                           wreg	equ	0xFE8
  8214                           postinc1	equ	0xFE6
  8215                           postdec1	equ	0xFE5
  8216                           fsr1l	equ	0xFE1
  8217                           indf2	equ	0xFDF
  8218                           postinc2	equ	0xFDE
  8219                           postdec2	equ	0xFDD
  8220                           fsr2h	equ	0xFDA
  8221                           fsr2l	equ	0xFD9
  8222                           status	equ	0xFD8
  8223                           
  8224 ;; *************** function ___ftpack *****************
  8225 ;; Defined at:
  8226 ;;		line 62 in file "C:\Program Files (x86)\Microchip\xc8\v1.30\sources\common\float.c"
  8227 ;; Parameters:    Size  Location     Type
  8228 ;;  arg             3   21[COMRAM] unsigned um
  8229 ;;  exp             1   24[COMRAM] unsigned char 
  8230 ;;  sign            1   25[COMRAM] unsigned char 
  8231 ;; Auto vars:     Size  Location     Type
  8232 ;;		None
  8233 ;; Return value:  Size  Location     Type
  8234 ;;                  3   21[COMRAM] float 
  8235 ;; Registers used:
  8236 ;;		wreg, status,2, status,0
  8237 ;; Tracked objects:
  8238 ;;		On entry : 0/0
  8239 ;;		On exit  : 0/0
  8240 ;;		Unchanged: 0/0
  8241 ;; Data sizes:     COMRAM   BANK0   BANK1   BANK2   BANK3   BANK4   BANK5
  8242 ;;      Params:         5       0       0       0       0       0       0
  8243 ;;      Locals:         0       0       0       0       0       0       0
  8244 ;;      Temps:          3       0       0       0       0       0       0
  8245 ;;      Totals:         8       0       0       0       0       0       0
  8246 ;;Total ram usage:        8 bytes
  8247 ;; Hardware stack levels used:    1
  8248 ;; Hardware stack levels required when called:    3
  8249 ;; This function calls:
  8250 ;;		Nothing
  8251 ;; This function is called by:
  8252 ;;		___awtoft
  8253 ;;		___ftadd
  8254 ;;		___ftdiv
  8255 ;;		___ftmul
  8256 ;;		___lwtoft
  8257 ;; This function uses a non-reentrant model
  8258 ;;
  8259                           
  8260                           	psect	text42
  8261  002152                     __ptext42:
  8262                           	opt stack 0
  8263  002152                     ___ftpack:
  8264                           	opt stack 23
  8265                           
  8266                           ;incstack = 0
  8267  002152  5019               	movf	___ftpack@exp,w,c
  8268  002154  B4D8               	btfsc	status,2,c
  8269  002156  D005               	goto	l6486
  8270  002158  5016               	movf	___ftpack@arg,w,c
  8271  00215A  1017               	iorwf	___ftpack@arg+1,w,c
  8272  00215C  1018               	iorwf	___ftpack@arg+2,w,c
  8273  00215E  A4D8               	btfss	status,2,c
  8274  002160  D00C               	goto	l6492
  8275  002162                     l6486:
  8276  002162  0E00               	movlw	0
  8277  002164  6E16               	movwf	?___ftpack,c
  8278  002166  0E00               	movlw	0
  8279  002168  6E17               	movwf	?___ftpack+1,c
  8280  00216A  0E00               	movlw	0
  8281  00216C  6E18               	movwf	?___ftpack+2,c
  8282  00216E  0012               	return	
  8283  002170                     l6490:
  8284  002170  2A19               	incf	___ftpack@exp,f,c
  8285  002172  90D8               	bcf	status,0,c
  8286  002174  3218               	rrcf	___ftpack@arg+2,f,c
  8287  002176  3217               	rrcf	___ftpack@arg+1,f,c
  8288  002178  3216               	rrcf	___ftpack@arg,f,c
  8289  00217A                     l6492:
  8290  00217A  0E00               	movlw	0
  8291  00217C  1416               	andwf	___ftpack@arg,w,c
  8292  00217E  6E1B               	movwf	??___ftpack& (0+255),c
  8293  002180  0E00               	movlw	0
  8294  002182  1417               	andwf	___ftpack@arg+1,w,c
  8295  002184  6E1C               	movwf	(??___ftpack+1)& (0+255),c
  8296  002186  0EFE               	movlw	254
  8297  002188  1418               	andwf	___ftpack@arg+2,w,c
  8298  00218A  6E1D               	movwf	(??___ftpack+2)& (0+255),c
  8299  00218C  501B               	movf	??___ftpack,w,c
  8300  00218E  101C               	iorwf	??___ftpack+1,w,c
  8301  002190  101D               	iorwf	??___ftpack+2,w,c
  8302  002192  B4D8               	btfsc	status,2,c
  8303  002194  D00C               	goto	l6498
  8304  002196  D7EC               	goto	l6490
  8305  002198                     l6494:
  8306  002198  2A19               	incf	___ftpack@exp,f,c
  8307  00219A  0E01               	movlw	1
  8308  00219C  2616               	addwf	___ftpack@arg,f,c
  8309  00219E  0E00               	movlw	0
  8310  0021A0  2217               	addwfc	___ftpack@arg+1,f,c
  8311  0021A2  0E00               	movlw	0
  8312  0021A4  2218               	addwfc	___ftpack@arg+2,f,c
  8313  0021A6  90D8               	bcf	status,0,c
  8314  0021A8  3218               	rrcf	___ftpack@arg+2,f,c
  8315  0021AA  3217               	rrcf	___ftpack@arg+1,f,c
  8316  0021AC  3216               	rrcf	___ftpack@arg,f,c
  8317  0021AE                     l6498:
  8318  0021AE  0E00               	movlw	0
  8319  0021B0  1416               	andwf	___ftpack@arg,w,c
  8320  0021B2  6E1B               	movwf	??___ftpack& (0+255),c
  8321  0021B4  0E00               	movlw	0
  8322  0021B6  1417               	andwf	___ftpack@arg+1,w,c
  8323  0021B8  6E1C               	movwf	(??___ftpack+1)& (0+255),c
  8324  0021BA  0EFF               	movlw	255
  8325  0021BC  1418               	andwf	___ftpack@arg+2,w,c
  8326  0021BE  6E1D               	movwf	(??___ftpack+2)& (0+255),c
  8327  0021C0  501B               	movf	??___ftpack,w,c
  8328  0021C2  101C               	iorwf	??___ftpack+1,w,c
  8329  0021C4  101D               	iorwf	??___ftpack+2,w,c
  8330  0021C6  B4D8               	btfsc	status,2,c
  8331  0021C8  D006               	goto	l6502
  8332  0021CA  D7E6               	goto	l6494
  8333  0021CC                     l6500:
  8334  0021CC  0619               	decf	___ftpack@exp,f,c
  8335  0021CE  90D8               	bcf	status,0,c
  8336  0021D0  3616               	rlcf	___ftpack@arg,f,c
  8337  0021D2  3617               	rlcf	___ftpack@arg+1,f,c
  8338  0021D4  3618               	rlcf	___ftpack@arg+2,f,c
  8339  0021D6                     l6502:
  8340  0021D6  AE17               	btfss	___ftpack@arg+1,7,c
  8341  0021D8  D7F9               	goto	l6500
  8342  0021DA  A019               	btfss	___ftpack@exp,0,c
  8343  0021DC  9E17               	bcf	___ftpack@arg+1,7,c
  8344  0021DE  90D8               	bcf	status,0,c
  8345  0021E0  3219               	rrcf	___ftpack@exp,f,c
  8346  0021E2  5019               	movf	___ftpack@exp,w,c
  8347  0021E4  1218               	iorwf	___ftpack@arg+2,f,c
  8348  0021E6  501A               	movf	___ftpack@sign,w,c
  8349  0021E8  A4D8               	btfss	status,2,c
  8350  0021EA  8E18               	bsf	___ftpack@arg+2,7,c
  8351  0021EC  C016  F016         	movff	___ftpack@arg,?___ftpack
  8352  0021F0  C017  F017         	movff	___ftpack@arg+1,?___ftpack+1
  8353  0021F4  C018  F018         	movff	___ftpack@arg+2,?___ftpack+2
  8354  0021F8  0012               	return	
  8355  0021FA                     __end_of___ftpack:
  8356                           	opt stack 0
  8357                           tblptru	equ	0xFF8
  8358                           tblptrh	equ	0xFF7
  8359                           tblptrl	equ	0xFF6
  8360                           tablat	equ	0xFF5
  8361                           prodh	equ	0xFF4
  8362                           prodl	equ	0xFF3
  8363                           intcon	equ	0xFF2
  8364                           postinc0	equ	0xFEE
  8365                           wreg	equ	0xFE8
  8366                           postinc1	equ	0xFE6
  8367                           postdec1	equ	0xFE5
  8368                           fsr1l	equ	0xFE1
  8369                           indf2	equ	0xFDF
  8370                           postinc2	equ	0xFDE
  8371                           postdec2	equ	0xFDD
  8372                           fsr2h	equ	0xFDA
  8373                           fsr2l	equ	0xFD9
  8374                           status	equ	0xFD8
  8375                           
  8376 ;; *************** function ___ftdiv *****************
  8377 ;; Defined at:
  8378 ;;		line 49 in file "C:\Program Files (x86)\Microchip\xc8\v1.30\sources\common\ftdiv.c"
  8379 ;; Parameters:    Size  Location     Type
  8380 ;;  f1              3    0[BANK0 ] float 
  8381 ;;  f2              3    3[BANK0 ] float 
  8382 ;; Auto vars:     Size  Location     Type
  8383 ;;  f3              3   45[COMRAM] float 
  8384 ;;  sign            1   49[COMRAM] unsigned char 
  8385 ;;  exp             1   48[COMRAM] unsigned char 
  8386 ;;  cntr            1   44[COMRAM] unsigned char 
  8387 ;; Return value:  Size  Location     Type
  8388 ;;                  3    0[BANK0 ] float 
  8389 ;; Registers used:
  8390 ;;		wreg, status,2, status,0, cstack
  8391 ;; Tracked objects:
  8392 ;;		On entry : 0/0
  8393 ;;		On exit  : 0/0
  8394 ;;		Unchanged: 0/0
  8395 ;; Data sizes:     COMRAM   BANK0   BANK1   BANK2   BANK3   BANK4   BANK5
  8396 ;;      Params:         0       6       0       0       0       0       0
  8397 ;;      Locals:        12       0       0       0       0       0       0
  8398 ;;      Temps:          3       0       0       0       0       0       0
  8399 ;;      Totals:        15       6       0       0       0       0       0
  8400 ;;Total ram usage:       21 bytes
  8401 ;; Hardware stack levels used:    1
  8402 ;; Hardware stack levels required when called:    4
  8403 ;; This function calls:
  8404 ;;		___ftpack
  8405 ;; This function is called by:
  8406 ;;		_Thruster_Driver
  8407 ;;		_Tomcat_Depth
  8408 ;;		_Tomcat_Temp
  8409 ;;		_Tomcat_Temp_Ex
  8410 ;;		_Tomcat_Heading
  8411 ;;		_Tomcat_Pitch
  8412 ;;		_Tomcat_Roll
  8413 ;;		_atan
  8414 ;; This function uses a non-reentrant model
  8415 ;;
  8416                           
  8417                           	psect	text43
  8418  0019C6                     __ptext43:
  8419                           	opt stack 0
  8420  0019C6                     ___ftdiv:
  8421                           	opt stack 25
  8422                           
  8423                           ;incstack = 0
  8424  0019C6  0100               	movlb	0	; () banked
  8425  0019C8  C062  F024         	movff	___ftdiv@f1+2,??___ftdiv
  8426  0019CC  6A25               	clrf	(??___ftdiv+1)& (0+255),c
  8427  0019CE  6A26               	clrf	(??___ftdiv+2)& (0+255),c
  8428  0019D0  0100               	movlb	0	; () banked
  8429  0019D2  3561               	rlcf	(___ftdiv@f1+1)& (0+255),w,b
  8430  0019D4  3624               	rlcf	??___ftdiv& (0+255),f,c
  8431  0019D6  E301               	bnc	u5801
  8432  0019D8  8025               	bsf	(??___ftdiv+1)& (0+255),0,c
  8433  0019DA                     u5801:
  8434  0019DA  5024               	movf	??___ftdiv,w,c
  8435  0019DC  6E31               	movwf	___ftdiv@exp,c
  8436  0019DE  6631               	tstfsz	___ftdiv@exp& (0+255),c
  8437  0019E0  D00D               	goto	l6592
  8438  0019E2  0E00               	movlw	0
  8439  0019E4  0100               	movlb	0	; () banked
  8440  0019E6  0100               	movlb	0	; () banked
  8441  0019E8  6F60               	movwf	?___ftdiv& (0+255),b
  8442  0019EA  0E00               	movlw	0
  8443  0019EC  0100               	movlb	0	; () banked
  8444  0019EE  0100               	movlb	0	; () banked
  8445  0019F0  6F61               	movwf	(?___ftdiv+1)& (0+255),b
  8446  0019F2  0E00               	movlw	0
  8447  0019F4  0100               	movlb	0	; () banked
  8448  0019F6  0100               	movlb	0	; () banked
  8449  0019F8  6F62               	movwf	(?___ftdiv+2)& (0+255),b
  8450  0019FA  0012               	return	
  8451  0019FC                     l6592:
  8452  0019FC  0100               	movlb	0	; () banked
  8453  0019FE  C065  F024         	movff	___ftdiv@f2+2,??___ftdiv
  8454  001A02  6A25               	clrf	(??___ftdiv+1)& (0+255),c
  8455  001A04  6A26               	clrf	(??___ftdiv+2)& (0+255),c
  8456  001A06  0100               	movlb	0	; () banked
  8457  001A08  3564               	rlcf	(___ftdiv@f2+1)& (0+255),w,b
  8458  001A0A  3624               	rlcf	??___ftdiv& (0+255),f,c
  8459  001A0C  E301               	bnc	u5821
  8460  001A0E  8025               	bsf	(??___ftdiv+1)& (0+255),0,c
  8461  001A10                     u5821:
  8462  001A10  5024               	movf	??___ftdiv,w,c
  8463  001A12  6E32               	movwf	___ftdiv@sign,c
  8464  001A14  6632               	tstfsz	___ftdiv@sign& (0+255),c
  8465  001A16  D00D               	goto	l6598
  8466  001A18  0E00               	movlw	0
  8467  001A1A  0100               	movlb	0	; () banked
  8468  001A1C  0100               	movlb	0	; () banked
  8469  001A1E  6F60               	movwf	?___ftdiv& (0+255),b
  8470  001A20  0E00               	movlw	0
  8471  001A22  0100               	movlb	0	; () banked
  8472  001A24  0100               	movlb	0	; () banked
  8473  001A26  6F61               	movwf	(?___ftdiv+1)& (0+255),b
  8474  001A28  0E00               	movlw	0
  8475  001A2A  0100               	movlb	0	; () banked
  8476  001A2C  0100               	movlb	0	; () banked
  8477  001A2E  6F62               	movwf	(?___ftdiv+2)& (0+255),b
  8478  001A30  0012               	return	
  8479  001A32                     l6598:
  8480  001A32  0E00               	movlw	0
  8481  001A34  6E2E               	movwf	___ftdiv@f3,c
  8482  001A36  0E00               	movlw	0
  8483  001A38  6E2F               	movwf	___ftdiv@f3+1,c
  8484  001A3A  0E00               	movlw	0
  8485  001A3C  6E30               	movwf	___ftdiv@f3+2,c
  8486  001A3E  5032               	movf	___ftdiv@sign,w,c
  8487  001A40  0F89               	addlw	137
  8488  001A42  5E31               	subwf	___ftdiv@exp,f,c
  8489  001A44  C062  F032         	movff	___ftdiv@f1+2,___ftdiv@sign
  8490  001A48  0100               	movlb	0	; () banked
  8491  001A4A  0100               	movlb	0	; () banked
  8492  001A4C  5165               	movf	(___ftdiv@f2+2)& (0+255),w,b
  8493  001A4E  1A32               	xorwf	___ftdiv@sign,f,c
  8494                           
  8495                           ; BSR set to: 0
  8496  001A50  0E80               	movlw	128
  8497  001A52  1632               	andwf	___ftdiv@sign,f,c
  8498                           
  8499                           ; BSR set to: 0
  8500  001A54  0100               	movlb	0	; () banked
  8501  001A56  0100               	movlb	0	; () banked
  8502  001A58  8F61               	bsf	(___ftdiv@f1+1)& (0+255),7,b
  8503                           
  8504                           ; BSR set to: 0
  8505  001A5A  0EFF               	movlw	255
  8506  001A5C  0100               	movlb	0	; () banked
  8507  001A5E  0100               	movlb	0	; () banked
  8508  001A60  1760               	andwf	___ftdiv@f1& (0+255),f,b
  8509  001A62  0EFF               	movlw	255
  8510  001A64  0100               	movlb	0	; () banked
  8511  001A66  0100               	movlb	0	; () banked
  8512  001A68  1761               	andwf	(___ftdiv@f1+1)& (0+255),f,b
  8513  001A6A  0E00               	movlw	0
  8514  001A6C  0100               	movlb	0	; () banked
  8515  001A6E  0100               	movlb	0	; () banked
  8516  001A70  1762               	andwf	(___ftdiv@f1+2)& (0+255),f,b
  8517                           
  8518                           ; BSR set to: 0
  8519  001A72  0100               	movlb	0	; () banked
  8520  001A74  0100               	movlb	0	; () banked
  8521  001A76  8F64               	bsf	(___ftdiv@f2+1)& (0+255),7,b
  8522                           
  8523                           ; BSR set to: 0
  8524  001A78  0EFF               	movlw	255
  8525  001A7A  0100               	movlb	0	; () banked
  8526  001A7C  0100               	movlb	0	; () banked
  8527  001A7E  1763               	andwf	___ftdiv@f2& (0+255),f,b
  8528  001A80  0EFF               	movlw	255
  8529  001A82  0100               	movlb	0	; () banked
  8530  001A84  0100               	movlb	0	; () banked
  8531  001A86  1764               	andwf	(___ftdiv@f2+1)& (0+255),f,b
  8532  001A88  0E00               	movlw	0
  8533  001A8A  0100               	movlb	0	; () banked
  8534  001A8C  0100               	movlb	0	; () banked
  8535  001A8E  1765               	andwf	(___ftdiv@f2+2)& (0+255),f,b
  8536                           
  8537                           ; BSR set to: 0
  8538  001A90  6E24               	movwf	??___ftdiv& (0+255),c
  8539  001A92  0E18               	movlw	24
  8540  001A94  6E2D               	movwf	___ftdiv@cntr,c
  8541  001A96  5024               	movf	??___ftdiv& (0+255),w,c
  8542  001A98                     l1206:
  8543                           
  8544                           ; BSR set to: 0
  8545  001A98  90D8               	bcf	status,0,c
  8546  001A9A  362E               	rlcf	___ftdiv@f3,f,c
  8547  001A9C  362F               	rlcf	___ftdiv@f3+1,f,c
  8548  001A9E  3630               	rlcf	___ftdiv@f3+2,f,c
  8549                           
  8550                           ; BSR set to: 0
  8551  001AA0  0100               	movlb	0	; () banked
  8552  001AA2  0100               	movlb	0	; () banked
  8553  001AA4  5163               	movf	___ftdiv@f2& (0+255),w,b
  8554  001AA6  0100               	movlb	0	; () banked
  8555  001AA8  0100               	movlb	0	; () banked
  8556  001AAA  5D60               	subwf	___ftdiv@f1& (0+255),w,b
  8557  001AAC  0100               	movlb	0	; () banked
  8558  001AAE  0100               	movlb	0	; () banked
  8559  001AB0  5164               	movf	(___ftdiv@f2+1)& (0+255),w,b
  8560  001AB2  0100               	movlb	0	; () banked
  8561  001AB4  0100               	movlb	0	; () banked
  8562  001AB6  5961               	subwfb	(___ftdiv@f1+1)& (0+255),w,b
  8563  001AB8  0100               	movlb	0	; () banked
  8564  001ABA  0100               	movlb	0	; () banked
  8565  001ABC  5165               	movf	(___ftdiv@f2+2)& (0+255),w,b
  8566  001ABE  0100               	movlb	0	; () banked
  8567  001AC0  0100               	movlb	0	; () banked
  8568  001AC2  5962               	subwfb	(___ftdiv@f1+2)& (0+255),w,b
  8569  001AC4  A0D8               	btfss	status,0,c
  8570  001AC6  D013               	goto	l1207
  8571                           
  8572                           ; BSR set to: 0
  8573  001AC8  0100               	movlb	0	; () banked
  8574  001ACA  0100               	movlb	0	; () banked
  8575  001ACC  5163               	movf	___ftdiv@f2& (0+255),w,b
  8576  001ACE  0100               	movlb	0	; () banked
  8577  001AD0  0100               	movlb	0	; () banked
  8578  001AD2  5F60               	subwf	___ftdiv@f1& (0+255),f,b
  8579  001AD4  0100               	movlb	0	; () banked
  8580  001AD6  0100               	movlb	0	; () banked
  8581  001AD8  5164               	movf	(___ftdiv@f2+1)& (0+255),w,b
  8582  001ADA  0100               	movlb	0	; () banked
  8583  001ADC  0100               	movlb	0	; () banked
  8584  001ADE  5B61               	subwfb	(___ftdiv@f1+1)& (0+255),f,b
  8585  001AE0  0100               	movlb	0	; () banked
  8586  001AE2  0100               	movlb	0	; () banked
  8587  001AE4  5165               	movf	(___ftdiv@f2+2)& (0+255),w,b
  8588  001AE6  0100               	movlb	0	; () banked
  8589  001AE8  0100               	movlb	0	; () banked
  8590  001AEA  5B62               	subwfb	(___ftdiv@f1+2)& (0+255),f,b
  8591                           
  8592                           ; BSR set to: 0
  8593  001AEC  802E               	bsf	___ftdiv@f3,0,c
  8594  001AEE                     l1207:
  8595                           
  8596                           ; BSR set to: 0
  8597  001AEE  0100               	movlb	0	; () banked
  8598  001AF0  90D8               	bcf	status,0,c
  8599  001AF2  0100               	movlb	0	; () banked
  8600  001AF4  3760               	rlcf	___ftdiv@f1& (0+255),f,b
  8601  001AF6  0100               	movlb	0	; () banked
  8602  001AF8  3761               	rlcf	(___ftdiv@f1+1)& (0+255),f,b
  8603  001AFA  0100               	movlb	0	; () banked
  8604  001AFC  3762               	rlcf	(___ftdiv@f1+2)& (0+255),f,b
  8605                           
  8606                           ; BSR set to: 0
  8607  001AFE  2E2D               	decfsz	___ftdiv@cntr,f,c
  8608  001B00  D7CB               	goto	l1206
  8609                           
  8610                           ; BSR set to: 0
  8611                           
  8612                           ; BSR set to: 0
  8613  001B02  C02E  F016         	movff	___ftdiv@f3,___ftpack@arg
  8614  001B06  C02F  F017         	movff	___ftdiv@f3+1,___ftpack@arg+1
  8615  001B0A  C030  F018         	movff	___ftdiv@f3+2,___ftpack@arg+2
  8616  001B0E  C031  F019         	movff	___ftdiv@exp,___ftpack@exp
  8617  001B12  C032  F01A         	movff	___ftdiv@sign,___ftpack@sign
  8618  001B16  ECA9  F010         	call	___ftpack	;wreg free
  8619  001B1A  C016  F060         	movff	?___ftpack,?___ftdiv
  8620  001B1E  C017  F061         	movff	?___ftpack+1,?___ftdiv+1
  8621  001B22  C018  F062         	movff	?___ftpack+2,?___ftdiv+2
  8622  001B26  0012               	return	
  8623  001B28                     __end_of___ftdiv:
  8624                           	opt stack 0
  8625                           tblptru	equ	0xFF8
  8626                           tblptrh	equ	0xFF7
  8627                           tblptrl	equ	0xFF6
  8628                           tablat	equ	0xFF5
  8629                           prodh	equ	0xFF4
  8630                           prodl	equ	0xFF3
  8631                           intcon	equ	0xFF2
  8632                           postinc0	equ	0xFEE
  8633                           wreg	equ	0xFE8
  8634                           postinc1	equ	0xFE6
  8635                           postdec1	equ	0xFE5
  8636                           fsr1l	equ	0xFE1
  8637                           indf2	equ	0xFDF
  8638                           postinc2	equ	0xFDE
  8639                           postdec2	equ	0xFDD
  8640                           fsr2h	equ	0xFDA
  8641                           fsr2l	equ	0xFD9
  8642                           status	equ	0xFD8
  8643                           
  8644 ;; *************** function _isr *****************
  8645 ;; Defined at:
  8646 ;;		line 3 in file "Tom_V_Main.c"
  8647 ;; Parameters:    Size  Location     Type
  8648 ;;		None
  8649 ;; Auto vars:     Size  Location     Type
  8650 ;;		None
  8651 ;; Return value:  Size  Location     Type
  8652 ;;		None               void
  8653 ;; Registers used:
  8654 ;;		wreg, fsr1l, fsr1h, fsr2l, fsr2h, status,2, status,0, prodl, prodh, cstack
  8655 ;; Tracked objects:
  8656 ;;		On entry : 0/0
  8657 ;;		On exit  : 0/0
  8658 ;;		Unchanged: 0/0
  8659 ;; Data sizes:     COMRAM   BANK0   BANK1   BANK2   BANK3   BANK4   BANK5
  8660 ;;      Params:         0       0       0       0       0       0       0
  8661 ;;      Locals:         0       0       0       0       0       0       0
  8662 ;;      Temps:         15       0       0       0       0       0       0
  8663 ;;      Totals:        15       0       0       0       0       0       0
  8664 ;;Total ram usage:       15 bytes
  8665 ;; Hardware stack levels used:    1
  8666 ;; Hardware stack levels required when called:    2
  8667 ;; This function calls:
  8668 ;;		_strcpy
  8669 ;;		i2_Tomcat_TX_error
  8670 ;; This function is called by:
  8671 ;;		Interrupt level 2
  8672 ;; This function uses a non-reentrant model
  8673 ;;
  8674                           
  8675                           	psect	intcode
  8676  000008                     __pintcode:
  8677                           	opt stack 0
  8678  000008                     _isr:
  8679                           	opt stack 23
  8680                           
  8681                           ;incstack = 0
  8682  000008  CFFA F008          	movff	pclath,??_isr+1
  8683  00000C  CFFB F009          	movff	pclatu,??_isr+2
  8684  000010  CFE9 F00A          	movff	fsr0l,??_isr+3
  8685  000014  CFEA F00B          	movff	fsr0h,??_isr+4
  8686  000018  CFE1 F00C          	movff	fsr1l,??_isr+5
  8687  00001C  CFE2 F00D          	movff	fsr1h,??_isr+6
  8688  000020  CFD9 F00E          	movff	fsr2l,??_isr+7
  8689  000024  CFDA F00F          	movff	fsr2h,??_isr+8
  8690  000028  CFF3 F010          	movff	prodl,??_isr+9
  8691  00002C  CFF4 F011          	movff	prodh,??_isr+10
  8692  000030  CFF6 F012          	movff	tblptrl,??_isr+11
  8693  000034  CFF7 F013          	movff	tblptrh,??_isr+12
  8694  000038  CFF8 F014          	movff	tblptru,??_isr+13
  8695  00003C  CFF5 F015          	movff	tablat,??_isr+14
  8696                           
  8697                           ;Tom_V_Main.c: 4: INTCONbits.GIE = 0;
  8698  000040  9EF2               	bcf	intcon,7,c	;volatile
  8699                           
  8700                           ;Tom_V_Main.c: 5: if (OSCFIF){
  8701  000042  BEA1               	btfsc	4001,7,c	;volatile
  8702                           
  8703                           ;Tom_V_Main.c: 6: PORTBbits.RB1 = 1;
  8704  000044  8281               	bsf	3969,1,c	;volatile
  8705                           
  8706                           ;Tom_V_Main.c: 7: }
  8707                           ;Tom_V_Main.c: 8: if (INTCONbits.TMR0IF) {
  8708  000046  A4F2               	btfss	intcon,2,c	;volatile
  8709  000048  D00A               	goto	i2l5808
  8710                           
  8711                           ;Tom_V_Main.c: 9: INTCONbits.TMR0IF = 0;
  8712  00004A  94F2               	bcf	intcon,2,c	;volatile
  8713                           
  8714                           ;Tom_V_Main.c: 10: TMR0=0;
  8715  00004C  0E00               	movlw	0
  8716  00004E  6ED7               	movwf	4055,c	;volatile
  8717  000050  0E00               	movlw	0
  8718  000052  6ED6               	movwf	4054,c	;volatile
  8719                           
  8720                           ;Tom_V_Main.c: 11: tmr0_flag = 1;
  8721  000054  0100               	movlb	(_tmr0_flag/(0+8)) shr (0+8)
  8722  000056  883F               	bsf	_tmr0_flag/(0+8),_tmr0_flag& (0+7),c
  8723                           
  8724                           ;Tom_V_Main.c: 12: time++;
  8725  000058  0101               	movlb	1	; () banked
  8726  00005A  0101               	movlb	1	; () banked
  8727  00005C  2BBD               	incf	_time& (0+255),f,b
  8728  00005E                     i2l5808:
  8729                           
  8730                           ;Tom_V_Main.c: 14: }
  8731                           ;Tom_V_Main.c: 15: if (PIR1bits.TMR1IF) {
  8732  00005E  A09E               	btfss	3998,0,c	;volatile
  8733  000060  D014               	goto	i2l286
  8734                           
  8735                           ;Tom_V_Main.c: 16: PIR1bits.TMR1IF = 0;
  8736  000062  909E               	bcf	3998,0,c	;volatile
  8737                           
  8738                           ;Tom_V_Main.c: 17: TMR1=0;
  8739  000064  0E00               	movlw	0
  8740  000066  6ECF               	movwf	4047,c	;volatile
  8741  000068  0E00               	movlw	0
  8742  00006A  6ECE               	movwf	4046,c	;volatile
  8743                           
  8744                           ;Tom_V_Main.c: 18: comms_time++;
  8745  00006C  0101               	movlb	1	; () banked
  8746  00006E  0101               	movlb	1	; () banked
  8747  000070  4B8E               	infsnz	_comms_time& (0+255),f,b
  8748  000072  2B8F               	incf	(_comms_time+1)& (0+255),f,b
  8749                           
  8750                           ; BSR set to: 1
  8751                           ;Tom_V_Main.c: 19: if (comms_time > 20) LATAbits.LATA4 = 0;
  8752  000074  0E15               	movlw	21
  8753  000076  0101               	movlb	1	; () banked
  8754  000078  0101               	movlb	1	; () banked
  8755  00007A  5D8E               	subwf	_comms_time& (0+255),w,b
  8756  00007C  0E00               	movlw	0
  8757  00007E  0101               	movlb	1	; () banked
  8758  000080  598F               	subwfb	(_comms_time+1)& (0+255),w,b
  8759  000082  B0D8               	btfsc	status,0,c
  8760                           
  8761                           ; BSR set to: 1
  8762  000084  9889               	bcf	3977,4,c	;volatile
  8763                           
  8764                           ; BSR set to: 1
  8765                           ;Tom_V_Main.c: 20: tmr1_flag = 1;
  8766  000086  0100               	movlb	(_tmr1_flag/(0+8)) shr (0+8)
  8767  000088  8A3F               	bsf	_tmr1_flag/(0+8),_tmr1_flag& (0+7),c
  8768  00008A                     i2l286:
  8769                           
  8770                           ;Tom_V_Main.c: 22: }
  8771                           ;Tom_V_Main.c: 28: if (PIR1bits.RC1IF) {
  8772  00008A  AA9E               	btfss	3998,5,c	;volatile
  8773  00008C  D06B               	goto	i2l5850
  8774                           
  8775                           ;Tom_V_Main.c: 29: PIR1bits.RC1IF = 0;
  8776  00008E  9A9E               	bcf	3998,5,c	;volatile
  8777                           
  8778                           ;Tom_V_Main.c: 30: rx1_buff[rx1_count] = RCREG;
  8779  000090  5046               	movf	_rx1_count,w,c
  8780  000092  0D01               	mullw	1
  8781  000094  0100               	movlb	0	; () banked
  8782  000096  0EB9               	movlw	low _rx1_buff
  8783  000098  24F3               	addwf	prodl,w,c
  8784  00009A  6ED9               	movwf	fsr2l,c
  8785  00009C  0100               	movlb	0	; () banked
  8786  00009E  0E00               	movlw	high _rx1_buff
  8787  0000A0  20F4               	addwfc	prodh,w,c
  8788  0000A2  6EDA               	movwf	fsr2h,c
  8789  0000A4  CFAE FFDF          	movff	4014,indf2	;volatile
  8790                           
  8791                           ; BSR set to: 0
  8792                           ;Tom_V_Main.c: 31: if (rx1_count > 43) rx1_count = 0;
  8793  0000A8  0E2B               	movlw	43
  8794  0000AA  6446               	cpfsgt	_rx1_count,c
  8795  0000AC  D004               	goto	i2l5828
  8796                           
  8797                           ; BSR set to: 0
  8798  0000AE  6E07               	movwf	??_isr& (0+255),c
  8799  0000B0  0E00               	movlw	0
  8800  0000B2  6E46               	movwf	_rx1_count,c
  8801  0000B4  5007               	movf	??_isr& (0+255),w,c
  8802  0000B6                     i2l5828:
  8803                           
  8804                           ; BSR set to: 0
  8805                           ;Tom_V_Main.c: 32: if (rx1_buff[rx1_count] == 0x0a && rx1_buff[0] == '$'){
  8806  0000B6  5046               	movf	_rx1_count,w,c
  8807  0000B8  0D01               	mullw	1
  8808  0000BA  0100               	movlb	0	; () banked
  8809  0000BC  0EB9               	movlw	low _rx1_buff
  8810  0000BE  24F3               	addwf	prodl,w,c
  8811  0000C0  6ED9               	movwf	fsr2l,c
  8812  0000C2  0100               	movlb	0	; () banked
  8813  0000C4  0E00               	movlw	high _rx1_buff
  8814  0000C6  20F4               	addwfc	prodh,w,c
  8815  0000C8  6EDA               	movwf	fsr2h,c
  8816  0000CA  0E0A               	movlw	10
  8817  0000CC  62DF               	cpfseq	indf2,c
  8818  0000CE  D030               	goto	i2l5846
  8819                           
  8820                           ; BSR set to: 0
  8821  0000D0  0100               	movlb	0	; () banked
  8822  0000D2  0100               	movlb	0	; () banked
  8823  0000D4  51B9               	movf	_rx1_buff& (0+255),w,b
  8824  0000D6  0A24               	xorlw	36
  8825  0000D8  A4D8               	btfss	status,2,c
  8826  0000DA  D02A               	goto	i2l5846
  8827                           
  8828                           ; BSR set to: 0
  8829                           ;Tom_V_Main.c: 33: for (rx1_count = rx1_count + 1; rx1_count < 45; rx1_count++) rx1_buff
      +                          [rx1_count] = (0);
  8830  0000DC  2846               	incf	_rx1_count,w,c
  8831  0000DE  6E46               	movwf	_rx1_count,c
  8832  0000E0  D00D               	goto	i2l5838
  8833  0000E2                     i2l5834:
  8834                           
  8835                           ; BSR set to: 0
  8836  0000E2  5046               	movf	_rx1_count,w,c
  8837  0000E4  0D01               	mullw	1
  8838  0000E6  0100               	movlb	0	; () banked
  8839  0000E8  0EB9               	movlw	low _rx1_buff
  8840  0000EA  24F3               	addwf	prodl,w,c
  8841  0000EC  6ED9               	movwf	fsr2l,c
  8842  0000EE  0100               	movlb	0	; () banked
  8843  0000F0  0E00               	movlw	high _rx1_buff
  8844  0000F2  20F4               	addwfc	prodh,w,c
  8845  0000F4  6EDA               	movwf	fsr2h,c
  8846  0000F6  0E00               	movlw	0
  8847  0000F8  6EDF               	movwf	indf2,c
  8848                           
  8849                           ; BSR set to: 0
  8850  0000FA  2A46               	incf	_rx1_count,f,c
  8851  0000FC                     i2l5838:
  8852                           
  8853                           ; BSR set to: 0
  8854  0000FC  0E2C               	movlw	44
  8855  0000FE  6446               	cpfsgt	_rx1_count,c
  8856  000100  D7F0               	goto	i2l5834
  8857                           
  8858                           ; BSR set to: 0
  8859                           ;Tom_V_Main.c: 34: if(rx1_flag == 0) strcpy(rx_temp_buff, rx1_buff);
  8860  000102  0100               	movlb	(_rx1_flag/(0+8)) shr (0+8)
  8861  000104  B43F               	btfsc	_rx1_flag/(0+8),_rx1_flag& (0+7),c
  8862  000106  D00E               	goto	i2l5842
  8863  000108  0101               	movlb	1	; () banked
  8864  00010A  0E01               	movlw	high _rx_temp_buff
  8865  00010C  6E02               	movwf	strcpy@to+1,c
  8866  00010E  0101               	movlb	1	; () banked
  8867  000110  0E90               	movlw	low _rx_temp_buff
  8868  000112  6E01               	movwf	strcpy@to,c
  8869  000114  0100               	movlb	0	; () banked
  8870  000116  0E00               	movlw	high _rx1_buff
  8871  000118  6E04               	movwf	strcpy@from+1,c
  8872  00011A  0100               	movlb	0	; () banked
  8873  00011C  0EB9               	movlw	low _rx1_buff
  8874  00011E  6E03               	movwf	strcpy@from,c
  8875  000120  EC52  F014         	call	_strcpy	;wreg free
  8876  000124                     i2l5842:
  8877                           
  8878                           ;Tom_V_Main.c: 35: rx1_flag = 1;
  8879  000124  0100               	movlb	(_rx1_flag/(0+8)) shr (0+8)
  8880  000126  843F               	bsf	_rx1_flag/(0+8),_rx1_flag& (0+7),c
  8881                           
  8882                           ;Tom_V_Main.c: 36: rx1_count = 0;
  8883  000128  6E07               	movwf	??_isr& (0+255),c
  8884  00012A  0E00               	movlw	0
  8885  00012C  6E46               	movwf	_rx1_count,c
  8886  00012E  5007               	movf	??_isr& (0+255),w,c
  8887  000130                     i2l5846:
  8888                           
  8889                           ;Tom_V_Main.c: 37: }
  8890                           ;Tom_V_Main.c: 38: if (rx1_buff[rx1_count++] == '$'){
  8891  000130  2A46               	incf	_rx1_count,f,c
  8892  000132  0446               	decf	_rx1_count,w,c
  8893  000134  6E07               	movwf	??_isr& (0+255),c
  8894  000136  5007               	movf	??_isr,w,c
  8895  000138  0D01               	mullw	1
  8896  00013A  0100               	movlb	0	; () banked
  8897  00013C  0EB9               	movlw	low _rx1_buff
  8898  00013E  24F3               	addwf	prodl,w,c
  8899  000140  6ED9               	movwf	fsr2l,c
  8900  000142  0100               	movlb	0	; () banked
  8901  000144  0E00               	movlw	high _rx1_buff
  8902  000146  20F4               	addwfc	prodh,w,c
  8903  000148  6EDA               	movwf	fsr2h,c
  8904  00014A  0E24               	movlw	36
  8905  00014C  62DF               	cpfseq	indf2,c
  8906  00014E  D00A               	goto	i2l5850
  8907                           
  8908                           ; BSR set to: 0
  8909                           ;Tom_V_Main.c: 39: rx1_buff[0] = '$';
  8910  000150  6E07               	movwf	??_isr& (0+255),c
  8911  000152  0E24               	movlw	36
  8912  000154  0100               	movlb	0	; () banked
  8913  000156  0100               	movlb	0	; () banked
  8914  000158  6FB9               	movwf	_rx1_buff& (0+255),b
  8915  00015A  5007               	movf	??_isr& (0+255),w,c
  8916                           
  8917                           ;Tom_V_Main.c: 40: rx1_count = 1;
  8918  00015C  6E07               	movwf	??_isr& (0+255),c
  8919  00015E  0E01               	movlw	1
  8920  000160  6E46               	movwf	_rx1_count,c
  8921  000162  5007               	movf	??_isr& (0+255),w,c
  8922  000164                     i2l5850:
  8923                           
  8924                           ;Tom_V_Main.c: 41: }
  8925                           ;Tom_V_Main.c: 52: }
  8926                           ;Tom_V_Main.c: 53: if (PIR3bits.RC2IF) {
  8927  000164  AAA4               	btfss	4004,5,c	;volatile
  8928  000166  D003               	goto	i2l296
  8929                           
  8930                           ;Tom_V_Main.c: 54: PIR3bits.RC2IF = 0;
  8931  000168  9AA4               	bcf	4004,5,c	;volatile
  8932                           
  8933                           ;Tom_V_Main.c: 55: rx2_flag = 1;
  8934  00016A  0100               	movlb	(_rx2_flag/(0+8)) shr (0+8)
  8935  00016C  863F               	bsf	_rx2_flag/(0+8),_rx2_flag& (0+7),c
  8936  00016E                     i2l296:
  8937                           
  8938                           ;Tom_V_Main.c: 56: }
  8939                           ;Tom_V_Main.c: 57: if (INTCONbits.INT0IF) {
  8940  00016E  A2F2               	btfss	intcon,1,c	;volatile
  8941  000170  D006               	goto	i2l5858
  8942                           
  8943                           ;Tom_V_Main.c: 58: INTCONbits.INT0IF = 0;
  8944  000172  92F2               	bcf	intcon,1,c	;volatile
  8945                           
  8946                           ;Tom_V_Main.c: 59: leak1_flag = 1;
  8947  000174  0100               	movlb	(_leak1_flag/(0+8)) shr (0+8)
  8948  000176  803F               	bsf	_leak1_flag/(0+8),_leak1_flag& (0+7),c
  8949                           
  8950                           ;Tom_V_Main.c: 60: Tomcat_TX_error('L');
  8951  000178  0E4C               	movlw	76
  8952  00017A  EC3B  F014         	call	i2_Tomcat_TX_error
  8953  00017E                     i2l5858:
  8954                           
  8955                           ;Tom_V_Main.c: 61: }
  8956                           ;Tom_V_Main.c: 62: INTCONbits.GIE = 1;
  8957  00017E  8EF2               	bsf	intcon,7,c	;volatile
  8958  000180  C015  FFF5         	movff	??_isr+14,tablat
  8959  000184  C014  FFF8         	movff	??_isr+13,tblptru
  8960  000188  C013  FFF7         	movff	??_isr+12,tblptrh
  8961  00018C  C012  FFF6         	movff	??_isr+11,tblptrl
  8962  000190  C011  FFF4         	movff	??_isr+10,prodh
  8963  000194  C010  FFF3         	movff	??_isr+9,prodl
  8964  000198  C00F  FFDA         	movff	??_isr+8,fsr2h
  8965  00019C  C00E  FFD9         	movff	??_isr+7,fsr2l
  8966  0001A0  C00D  FFE2         	movff	??_isr+6,fsr1h
  8967  0001A4  C00C  FFE1         	movff	??_isr+5,fsr1l
  8968  0001A8  C00B  FFEA         	movff	??_isr+4,fsr0h
  8969  0001AC  C00A  FFE9         	movff	??_isr+3,fsr0l
  8970  0001B0  C009  FFFB         	movff	??_isr+2,pclatu
  8971  0001B4  C008  FFFA         	movff	??_isr+1,pclath
  8972  0001B8  0011               	retfie		f
  8973  0001BA                     __end_of_isr:
  8974                           	opt stack 0
  8975                           pclatu	equ	0xFFB
  8976                           pclath	equ	0xFFA
  8977                           tblptru	equ	0xFF8
  8978                           tblptrh	equ	0xFF7
  8979                           tblptrl	equ	0xFF6
  8980                           tablat	equ	0xFF5
  8981                           prodh	equ	0xFF4
  8982                           prodl	equ	0xFF3
  8983                           intcon	equ	0xFF2
  8984                           postinc0	equ	0xFEE
  8985                           fsr0h	equ	0xFEA
  8986                           fsr0l	equ	0xFE9
  8987                           wreg	equ	0xFE8
  8988                           postinc1	equ	0xFE6
  8989                           postdec1	equ	0xFE5
  8990                           fsr1h	equ	0xFE2
  8991                           fsr1l	equ	0xFE1
  8992                           indf2	equ	0xFDF
  8993                           postinc2	equ	0xFDE
  8994                           postdec2	equ	0xFDD
  8995                           fsr2h	equ	0xFDA
  8996                           fsr2l	equ	0xFD9
  8997                           status	equ	0xFD8
  8998                           
  8999 ;; *************** function i2_Tomcat_TX_error *****************
  9000 ;; Defined at:
  9001 ;;		line 295 in file "Tomcat_V_driver.c"
  9002 ;; Parameters:    Size  Location     Type
  9003 ;;  code            1    wreg     unsigned char 
  9004 ;; Auto vars:     Size  Location     Type
  9005 ;;  code            1    1[COMRAM] unsigned char 
  9006 ;; Return value:  Size  Location     Type
  9007 ;;		None               void
  9008 ;; Registers used:
  9009 ;;		wreg, status,2, cstack
  9010 ;; Tracked objects:
  9011 ;;		On entry : 0/0
  9012 ;;		On exit  : 0/0
  9013 ;;		Unchanged: 0/0
  9014 ;; Data sizes:     COMRAM   BANK0   BANK1   BANK2   BANK3   BANK4   BANK5
  9015 ;;      Params:         0       0       0       0       0       0       0
  9016 ;;      Locals:         1       0       0       0       0       0       0
  9017 ;;      Temps:          0       0       0       0       0       0       0
  9018 ;;      Totals:         1       0       0       0       0       0       0
  9019 ;;Total ram usage:        1 bytes
  9020 ;; Hardware stack levels used:    1
  9021 ;; Hardware stack levels required when called:    1
  9022 ;; This function calls:
  9023 ;;		i2_Write1USART
  9024 ;; This function is called by:
  9025 ;;		_isr
  9026 ;; This function uses a non-reentrant model
  9027 ;;
  9028                           
  9029                           	psect	text45
  9030  002876                     __ptext45:
  9031                           	opt stack 0
  9032  002876                     i2_Tomcat_TX_error:
  9033                           	opt stack 23
  9034                           
  9035                           ;incstack = 0
  9036                           ;i2Tomcat_TX_error@code stored from wreg
  9037  002876  CFE8 F002          	movff	wreg,i2Tomcat_TX_error@code
  9038  00287A                     i2l582:
  9039  00287A  A2AC               	btfss	4012,1,c	;volatile
  9040  00287C  D7FE               	goto	i2l582
  9041                           
  9042                           ;Tomcat_V_driver.c: 298: Write1USART('$');
  9043  00287E  0E24               	movlw	36
  9044  002880  ECE0  F014         	call	i2_Write1USART
  9045  002884                     i2l585:
  9046  002884  A2AC               	btfss	4012,1,c	;volatile
  9047  002886  D7FE               	goto	i2l585
  9048                           
  9049                           ;Tomcat_V_driver.c: 300: Write1USART('!');
  9050  002888  0E21               	movlw	33
  9051  00288A  ECE0  F014         	call	i2_Write1USART
  9052  00288E                     i2l588:
  9053  00288E  A2AC               	btfss	4012,1,c	;volatile
  9054  002890  D7FE               	goto	i2l588
  9055                           
  9056                           ;Tomcat_V_driver.c: 302: Write1USART(code);
  9057  002892  5002               	movf	i2Tomcat_TX_error@code,w,c
  9058  002894  ECE0  F014         	call	i2_Write1USART
  9059  002898                     i2l591:
  9060  002898  A2AC               	btfss	4012,1,c	;volatile
  9061  00289A  D7FE               	goto	i2l591
  9062                           
  9063                           ;Tomcat_V_driver.c: 304: Write1USART('\n');
  9064  00289C  0E0A               	movlw	10
  9065  00289E  ECE0  F014         	call	i2_Write1USART
  9066  0028A2  0012               	return	
  9067  0028A4                     __end_ofi2_Tomcat_TX_error:
  9068                           	opt stack 0
  9069                           pclatu	equ	0xFFB
  9070                           pclath	equ	0xFFA
  9071                           tblptru	equ	0xFF8
  9072                           tblptrh	equ	0xFF7
  9073                           tblptrl	equ	0xFF6
  9074                           tablat	equ	0xFF5
  9075                           prodh	equ	0xFF4
  9076                           prodl	equ	0xFF3
  9077                           intcon	equ	0xFF2
  9078                           postinc0	equ	0xFEE
  9079                           fsr0h	equ	0xFEA
  9080                           fsr0l	equ	0xFE9
  9081                           wreg	equ	0xFE8
  9082                           postinc1	equ	0xFE6
  9083                           postdec1	equ	0xFE5
  9084                           fsr1h	equ	0xFE2
  9085                           fsr1l	equ	0xFE1
  9086                           indf2	equ	0xFDF
  9087                           postinc2	equ	0xFDE
  9088                           postdec2	equ	0xFDD
  9089                           fsr2h	equ	0xFDA
  9090                           fsr2l	equ	0xFD9
  9091                           status	equ	0xFD8
  9092                           
  9093 ;; *************** function i2_Write1USART *****************
  9094 ;; Defined at:
  9095 ;;		line 14 in file "C:\Program Files (x86)\Microchip\xc8\v1.30\sources\pic18\plib\USART\u1write.c"
  9096 ;; Parameters:    Size  Location     Type
  9097 ;;  data            1    wreg     unsigned char 
  9098 ;; Auto vars:     Size  Location     Type
  9099 ;;  data            1    0[COMRAM] unsigned char 
  9100 ;; Return value:  Size  Location     Type
  9101 ;;		None               void
  9102 ;; Registers used:
  9103 ;;		wreg
  9104 ;; Tracked objects:
  9105 ;;		On entry : 0/0
  9106 ;;		On exit  : 0/0
  9107 ;;		Unchanged: 0/0
  9108 ;; Data sizes:     COMRAM   BANK0   BANK1   BANK2   BANK3   BANK4   BANK5
  9109 ;;      Params:         0       0       0       0       0       0       0
  9110 ;;      Locals:         1       0       0       0       0       0       0
  9111 ;;      Temps:          0       0       0       0       0       0       0
  9112 ;;      Totals:         1       0       0       0       0       0       0
  9113 ;;Total ram usage:        1 bytes
  9114 ;; Hardware stack levels used:    1
  9115 ;; This function calls:
  9116 ;;		Nothing
  9117 ;; This function is called by:
  9118 ;;		i2_Tomcat_TX_error
  9119 ;; This function uses a non-reentrant model
  9120 ;;
  9121                           
  9122                           	psect	text46
  9123  0029C0                     __ptext46:
  9124                           	opt stack 0
  9125  0029C0                     i2_Write1USART:
  9126                           	opt stack 23
  9127                           
  9128                           ;incstack = 0
  9129                           ;i2Write1USART@data stored from wreg
  9130  0029C0  CFE8 F001          	movff	wreg,i2Write1USART@data
  9131  0029C4  ACAC               	btfss	4012,6,c	;volatile
  9132  0029C6  D003               	goto	i2l5784
  9133  0029C8  90AC               	bcf	4012,0,c	;volatile
  9134  0029CA  B242               	btfsc	_USART1_Status,1,c
  9135  0029CC  80AC               	bsf	4012,0,c	;volatile
  9136  0029CE                     i2l5784:
  9137  0029CE  C001  FFAD         	movff	i2Write1USART@data,4013	;volatile
  9138  0029D2  0012               	return	
  9139  0029D4                     __end_ofi2_Write1USART:
  9140                           	opt stack 0
  9141                           pclatu	equ	0xFFB
  9142                           pclath	equ	0xFFA
  9143                           tblptru	equ	0xFF8
  9144                           tblptrh	equ	0xFF7
  9145                           tblptrl	equ	0xFF6
  9146                           tablat	equ	0xFF5
  9147                           prodh	equ	0xFF4
  9148                           prodl	equ	0xFF3
  9149                           intcon	equ	0xFF2
  9150                           postinc0	equ	0xFEE
  9151                           fsr0h	equ	0xFEA
  9152                           fsr0l	equ	0xFE9
  9153                           wreg	equ	0xFE8
  9154                           postinc1	equ	0xFE6
  9155                           postdec1	equ	0xFE5
  9156                           fsr1h	equ	0xFE2
  9157                           fsr1l	equ	0xFE1
  9158                           indf2	equ	0xFDF
  9159                           postinc2	equ	0xFDE
  9160                           postdec2	equ	0xFDD
  9161                           fsr2h	equ	0xFDA
  9162                           fsr2l	equ	0xFD9
  9163                           status	equ	0xFD8
  9164                           
  9165 ;; *************** function _strcpy *****************
  9166 ;; Defined at:
  9167 ;;		line 8 in file "C:\Program Files (x86)\Microchip\xc8\v1.30\sources\common\strcpy.c"
  9168 ;; Parameters:    Size  Location     Type
  9169 ;;  to              2    0[COMRAM] PTR unsigned char 
  9170 ;;		 -> rx_temp_buff(45), 
  9171 ;;  from            2    2[COMRAM] PTR const unsigned char 
  9172 ;;		 -> rx1_buff(45), 
  9173 ;; Auto vars:     Size  Location     Type
  9174 ;;  cp              2    4[COMRAM] PTR unsigned char 
  9175 ;;		 -> rx_temp_buff(45), 
  9176 ;; Return value:  Size  Location     Type
  9177 ;;                  2    0[COMRAM] PTR unsigned char 
  9178 ;; Registers used:
  9179 ;;		wreg, fsr1l, fsr1h, fsr2l, fsr2h, status,2, status,0
  9180 ;; Tracked objects:
  9181 ;;		On entry : 0/0
  9182 ;;		On exit  : 0/0
  9183 ;;		Unchanged: 0/0
  9184 ;; Data sizes:     COMRAM   BANK0   BANK1   BANK2   BANK3   BANK4   BANK5
  9185 ;;      Params:         4       0       0       0       0       0       0
  9186 ;;      Locals:         2       0       0       0       0       0       0
  9187 ;;      Temps:          0       0       0       0       0       0       0
  9188 ;;      Totals:         6       0       0       0       0       0       0
  9189 ;;Total ram usage:        6 bytes
  9190 ;; Hardware stack levels used:    1
  9191 ;; This function calls:
  9192 ;;		Nothing
  9193 ;; This function is called by:
  9194 ;;		_isr
  9195 ;; This function uses a non-reentrant model
  9196 ;;
  9197                           
  9198                           	psect	text47
  9199  0028A4                     __ptext47:
  9200                           	opt stack 0
  9201  0028A4                     _strcpy:
  9202                           	opt stack 24
  9203                           
  9204                           ;incstack = 0
  9205  0028A4  C002  F006         	movff	strcpy@to+1,strcpy@cp+1
  9206  0028A8  C001  F005         	movff	strcpy@to,strcpy@cp
  9207  0028AC  D004               	goto	i2l4688
  9208  0028AE                     i2l4686:
  9209  0028AE  4A05               	infsnz	strcpy@cp,f,c
  9210  0028B0  2A06               	incf	strcpy@cp+1,f,c
  9211  0028B2  4A03               	infsnz	strcpy@from,f,c
  9212  0028B4  2A04               	incf	strcpy@from+1,f,c
  9213  0028B6                     i2l4688:
  9214  0028B6  C003  FFD9         	movff	strcpy@from,fsr2l
  9215  0028BA  C004  FFDA         	movff	strcpy@from+1,fsr2h
  9216  0028BE  C005  FFE1         	movff	strcpy@cp,fsr1l
  9217  0028C2  C006  FFE2         	movff	strcpy@cp+1,fsr1h
  9218  0028C6  CFDF FFE7          	movff	indf2,indf1
  9219  0028CA  50E7               	movf	indf1,w,c
  9220  0028CC  B4D8               	btfsc	status,2,c
  9221                           
  9222                           ;	Return value of _strcpy is never used
  9223  0028CE  0012               	return	
  9224  0028D0  D7EE               	goto	i2l4686
  9225  0028D2                     __end_of_strcpy:
  9226                           	opt stack 0
  9227                           pclatu	equ	0xFFB
  9228                           pclath	equ	0xFFA
  9229                           tblptru	equ	0xFF8
  9230                           tblptrh	equ	0xFF7
  9231                           tblptrl	equ	0xFF6
  9232                           tablat	equ	0xFF5
  9233                           prodh	equ	0xFF4
  9234                           prodl	equ	0xFF3
  9235                           intcon	equ	0xFF2
  9236                           postinc0	equ	0xFEE
  9237                           fsr0h	equ	0xFEA
  9238                           fsr0l	equ	0xFE9
  9239                           wreg	equ	0xFE8
  9240                           indf1	equ	0xFE7
  9241                           postinc1	equ	0xFE6
  9242                           postdec1	equ	0xFE5
  9243                           fsr1h	equ	0xFE2
  9244                           fsr1l	equ	0xFE1
  9245                           indf2	equ	0xFDF
  9246                           postinc2	equ	0xFDE
  9247                           postdec2	equ	0xFDD
  9248                           fsr2h	equ	0xFDA
  9249                           fsr2l	equ	0xFD9
  9250                           status	equ	0xFD8
  9251                           pclatu	equ	0xFFB
  9252                           pclath	equ	0xFFA
  9253                           tblptru	equ	0xFF8
  9254                           tblptrh	equ	0xFF7
  9255                           tblptrl	equ	0xFF6
  9256                           tablat	equ	0xFF5
  9257                           prodh	equ	0xFF4
  9258                           prodl	equ	0xFF3
  9259                           intcon	equ	0xFF2
  9260                           postinc0	equ	0xFEE
  9261                           fsr0h	equ	0xFEA
  9262                           fsr0l	equ	0xFE9
  9263                           wreg	equ	0xFE8
  9264                           indf1	equ	0xFE7
  9265                           postinc1	equ	0xFE6
  9266                           postdec1	equ	0xFE5
  9267                           fsr1h	equ	0xFE2
  9268                           fsr1l	equ	0xFE1
  9269                           indf2	equ	0xFDF
  9270                           postinc2	equ	0xFDE
  9271                           postdec2	equ	0xFDD
  9272                           fsr2h	equ	0xFDA
  9273                           fsr2l	equ	0xFD9
  9274                           status	equ	0xFD8
  9275                           
  9276                           	psect	text48
  9277  000000                     __ptext48:
  9278                           	opt stack 0
  9279                           pclatu	equ	0xFFB
  9280                           pclath	equ	0xFFA
  9281                           tblptru	equ	0xFF8
  9282                           tblptrh	equ	0xFF7
  9283                           tblptrl	equ	0xFF6
  9284                           tablat	equ	0xFF5
  9285                           prodh	equ	0xFF4
  9286                           prodl	equ	0xFF3
  9287                           intcon	equ	0xFF2
  9288                           postinc0	equ	0xFEE
  9289                           fsr0h	equ	0xFEA
  9290                           fsr0l	equ	0xFE9
  9291                           wreg	equ	0xFE8
  9292                           indf1	equ	0xFE7
  9293                           postinc1	equ	0xFE6
  9294                           postdec1	equ	0xFE5
  9295                           fsr1h	equ	0xFE2
  9296                           fsr1l	equ	0xFE1
  9297                           indf2	equ	0xFDF
  9298                           postinc2	equ	0xFDE
  9299                           postdec2	equ	0xFDD
  9300                           fsr2h	equ	0xFDA
  9301                           fsr2l	equ	0xFD9
  9302                           status	equ	0xFD8
  9303                           
  9304                           	psect	rparam
  9305  0000                     pclatu	equ	0xFFB
  9306                           pclath	equ	0xFFA
  9307                           tblptru	equ	0xFF8
  9308                           tblptrh	equ	0xFF7
  9309                           tblptrl	equ	0xFF6
  9310                           tablat	equ	0xFF5
  9311                           prodh	equ	0xFF4
  9312                           prodl	equ	0xFF3
  9313                           intcon	equ	0xFF2
  9314                           postinc0	equ	0xFEE
  9315                           fsr0h	equ	0xFEA
  9316                           fsr0l	equ	0xFE9
  9317                           wreg	equ	0xFE8
  9318                           indf1	equ	0xFE7
  9319                           postinc1	equ	0xFE6
  9320                           postdec1	equ	0xFE5
  9321                           fsr1h	equ	0xFE2
  9322                           fsr1l	equ	0xFE1
  9323                           indf2	equ	0xFDF
  9324                           postinc2	equ	0xFDE
  9325                           postdec2	equ	0xFDD
  9326                           fsr2h	equ	0xFDA
  9327                           fsr2l	equ	0xFD9
  9328                           status	equ	0xFD8


Data Sizes:
    Strings     39
    Constant    72
    Data        25
    BSS         149
    Persistent  0
    Stack       0

Auto Spaces:
    Space          Size  Autos    Used
    COMRAM           95     50      70
    BANK0           160     81     158
    BANK1           256    112     190
    BANK2           256      0       0
    BANK3           256      0       0
    BANK4           256      0       0
    BANK5           256      0       0

Pointer List with Targets:

    strchr@ptr	PTR const unsigned char  size(2) Largest target is 2
		 -> STR_4(CODE[2]), STR_3(CODE[2]), STR_2(CODE[2]), 

    strspn@s2	PTR const unsigned char  size(2) Largest target is 2
		 -> STR_4(CODE[2]), STR_3(CODE[2]), STR_2(CODE[2]), 

    strspn@s1	PTR const unsigned char  size(2) Largest target is 45
		 -> NULL(NULL[0]), rx_temp_buff(BANK1[45]), 

    sp__strchr	PTR unsigned char  size(2) Largest target is 2
		 -> STR_4(CODE[2]), STR_3(CODE[2]), NULL(NULL[0]), STR_2(CODE[2]), 

    strcspn@s2	PTR const unsigned char  size(2) Largest target is 2
		 -> STR_4(CODE[2]), STR_3(CODE[2]), STR_2(CODE[2]), 

    strcspn@s1	PTR const unsigned char  size(2) Largest target is 45
		 -> NULL(NULL[0]), rx_temp_buff(BANK1[45]), 

    frexp@eptr	PTR int  size(2) Largest target is 2
		 -> log@exponent(BANK0[2]), 

    strtok@s2	PTR const unsigned char  size(2) Largest target is 2
		 -> STR_4(CODE[2]), STR_3(CODE[2]), STR_2(CODE[2]), 

    strtok@sp	PTR unsigned char  size(2) Largest target is 45
		 -> NULL(NULL[0]), rx_temp_buff(BANK1[45]), 

    strtok@s1	PTR unsigned char  size(2) Largest target is 45
		 -> NULL(NULL[0]), rx_temp_buff(BANK1[45]), 

    strlen@s	PTR const unsigned char  size(2) Largest target is 60
		 -> main@surf_buff(BANK1[60]), 

    strlen@cp	PTR const unsigned char  size(2) Largest target is 60
		 -> main@surf_buff(BANK1[60]), 

    strcpy@from	PTR const unsigned char  size(2) Largest target is 45
		 -> rx1_buff(BANK0[45]), 

    strcpy@to	PTR unsigned char  size(2) Largest target is 45
		 -> rx_temp_buff(BANK1[45]), 

    strcpy@cp	PTR unsigned char  size(2) Largest target is 45
		 -> rx_temp_buff(BANK1[45]), 

    eval_poly@d	PTR const  size(2) Largest target is 27
		 -> log@coeff(CODE[27]), atan@coeff_a(CODE[18]), atan@coeff_b(CODE[15]), 

    atoi@s	PTR const unsigned char  size(2) Largest target is 45
		 -> NULL(NULL[0]), rx_temp_buff(BANK1[45]), 

    puts1USART@data	PTR unsigned char  size(2) Largest target is 45
		 -> rx_temp_buff(BANK1[45]), 

    sprintf@f	PTR const unsigned char  size(2) Largest target is 37
		 -> STR_1(CODE[37]), 

    sprintf@sp	PTR unsigned char  size(2) Largest target is 60
		 -> main@surf_buff(BANK1[60]), 

    sprintf@ap	PTR void [1] size(2) Largest target is 2
		 -> ?_sprintf(BANK0[2]), 

    S1644$_cp	PTR const unsigned char  size(2) Largest target is 0

    _val._str._cp	PTR const unsigned char  size(2) Largest target is 0

    Tomcat_TX_data@tx_buff	PTR unsigned char  size(2) Largest target is 60
		 -> main@surf_buff(BANK1[60]), 

    sp__strtok	PTR unsigned char  size(2) Largest target is 45
		 -> NULL(NULL[0]), rx_temp_buff(BANK1[45]), 

    main@token	PTR unsigned char  size(2) Largest target is 45
		 -> NULL(NULL[0]), rx_temp_buff(BANK1[45]), 

    sp__strcpy	PTR unsigned char  size(2) Largest target is 45
		 -> rx_temp_buff(BANK1[45]), 


Critical Paths under _main in COMRAM

    _strtok->_strcspn
    _strtok->_strspn
    _strspn->_strchr
    _strcspn->_strchr
    _sprintf->___lwmod
    ___lwmod->___lwdiv
    _puts1USART->_Write1USART
    _atoi->___wmul
    _Tomcat_Temp_Ex->___ftdiv
    ___wmul->_analogRead
    _Tomcat_Temp->___ftdiv
    _Tomcat_TX_warn->_Write1USART
    _Tomcat_TX_error->_Write1USART
    _Tomcat_TX_data->_strlen
    _Tomcat_Setup->_Open1USART
    _Tomcat_Depth->___ftdiv
    ___lwtoft->_analogRead
    ___ftmul->___ftdiv
    ___ftadd->___ftdiv
    _Tomcat_Camera->_analogRead
    _Thruster_Driver->___ftdiv
    ___fttol->___ftdiv
    ___awtoft->___ftpack
    ___ftdiv->___awtoft

Critical Paths under _isr in COMRAM

    _isr->_strcpy
    i2_Tomcat_TX_error->i2_Write1USART

Critical Paths under _main in BANK0

    _main->_Tomcat_Temp_Ex
    _Tomcat_Temp_Ex->___ftneg
    _log->_eval_poly
    _eval_poly->___ftadd
    ___ftneg->_log
    _Tomcat_Temp->___fttol
    _Tomcat_Press_Int->___ftadd
    _Tomcat_Press_Int->___fttol
    _Tomcat_Depth->___ftadd
    _Tomcat_Depth->___fttol
    ___ftmul->___ftdiv
    ___ftadd->___ftmul
    _Thruster_Driver->___fttol
    ___fttol->___ftmul

Critical Paths under _isr in BANK0

    None.

Critical Paths under _main in BANK1

    None.

Critical Paths under _isr in BANK1

    None.

Critical Paths under _main in BANK2

    None.

Critical Paths under _isr in BANK2

    None.

Critical Paths under _main in BANK3

    None.

Critical Paths under _isr in BANK3

    None.

Critical Paths under _main in BANK4

    None.

Critical Paths under _isr in BANK4

    None.

Critical Paths under _main in BANK5

    None.

Critical Paths under _isr in BANK5

    None.

Call Graph Tables:

 ---------------------------------------------------------------------------------
 (Depth) Function   	        Calls       Base Space   Used Autos Params    Refs
 ---------------------------------------------------------------------------------
 (0) _main                                               120   120      0  155244
                                             79 BANK0      2     2      0
                                              0 BANK1    112   112      0
                    _Thruster_Driver
                      _Tomcat_Camera
                        _Tomcat_Claw
                       _Tomcat_Depth
                   _Tomcat_Press_Int
                       _Tomcat_Setup
                     _Tomcat_TX_data
                    _Tomcat_TX_error
                     _Tomcat_TX_warn
                        _Tomcat_Temp
                     _Tomcat_Temp_Ex
                            ___awmod
                             ___wmul
                         _analogRead
                               _atoi
                         _puts1USART
                            _sprintf
                             _strlen
                             _strtok
 ---------------------------------------------------------------------------------
 (1) _strtok                                               4     0      4    1710
                                             32 COMRAM     4     0      4
                            _strcspn
                             _strspn
 ---------------------------------------------------------------------------------
 (2) _strspn                                               7     3      4     563
                                             25 COMRAM     7     3      4
                             _strchr
 ---------------------------------------------------------------------------------
 (2) _strcspn                                              7     3      4     563
                                             25 COMRAM     7     3      4
                             _strchr
 ---------------------------------------------------------------------------------
 (3) _strchr                                               4     0      4     344
                                             21 COMRAM     4     0      4
 ---------------------------------------------------------------------------------
 (1) _strlen                                               6     4      2     154
                                             21 COMRAM     6     4      2
 ---------------------------------------------------------------------------------
 (1) _sprintf                                             40    12     28    1631
                                             35 COMRAM    12    12      0
                                              0 BANK0     28     0     28
                            ___lwdiv
                            ___lwmod
 ---------------------------------------------------------------------------------
 (2) ___lwmod                                              6     2      4     386
                                             29 COMRAM     6     2      4
                            ___lwdiv (ARG)
 ---------------------------------------------------------------------------------
 (2) ___lwdiv                                              8     4      4     395
                                             21 COMRAM     8     4      4
 ---------------------------------------------------------------------------------
 (1) _puts1USART                                           2     0      2     130
                                             22 COMRAM     2     0      2
                        _Write1USART
 ---------------------------------------------------------------------------------
 (1) _atoi                                                 7     5      2    1159
                                             38 COMRAM     7     5      2
                             ___wmul
                            _isdigit
                             _strtok (ARG)
 ---------------------------------------------------------------------------------
 (2) _isdigit                                              3     3      0      68
                                             21 COMRAM     3     3      0
 ---------------------------------------------------------------------------------
 (1) ___awmod                                              7     3      4     424
                                             21 COMRAM     7     3      4
 ---------------------------------------------------------------------------------
 (1) _Tomcat_Temp_Ex                                      12    10      2   60853
                                             67 BANK0     12    10      2
                            ___ftadd
                            ___ftdiv
                            ___ftmul
                            ___ftneg
                            ___fttol
                           ___lwtoft
                         _analogRead
                                _log
 ---------------------------------------------------------------------------------
 (2) _log                                                  5     2      3   36064
                                             57 BANK0      7     4      3
                           ___awtoft
                            ___ftadd
                            ___ftmul
                          _eval_poly
                              _frexp
 ---------------------------------------------------------------------------------
 (3) _frexp                                                8     3      5     352
                                             21 COMRAM     8     3      5
 ---------------------------------------------------------------------------------
 (3) _eval_poly                                           12     5      7   16760
                                             42 BANK0     15     8      7
                            ___ftadd
                            ___ftmul
                             ___wmul
 ---------------------------------------------------------------------------------
 (2) ___wmul                                               6     2      4     671
                                             30 COMRAM     8     4      4
                         _analogRead (ARG)
 ---------------------------------------------------------------------------------
 (2) ___ftneg                                              3     0      3     393
                                             64 BANK0      3     0      3
                            ___ftmul (ARG)
                                _log (ARG)
 ---------------------------------------------------------------------------------
 (1) _Tomcat_Temp                                          9     7      2   18271
                                             42 BANK0      9     7      2
                            ___ftdiv
                            ___ftmul
                            ___fttol
                           ___lwtoft
                         _analogRead
 ---------------------------------------------------------------------------------
 (1) _Tomcat_TX_warn                                       1     1      0      44
                                             22 COMRAM     1     1      0
                        _Write1USART
 ---------------------------------------------------------------------------------
 (1) _Tomcat_TX_error                                      1     1      0      44
                                             22 COMRAM     1     1      0
                        _Write1USART
 ---------------------------------------------------------------------------------
 (1) _Tomcat_TX_data                                       5     2      3     241
                                             27 COMRAM     5     2      3
                        _Write1USART
                             _strlen (ARG)
 ---------------------------------------------------------------------------------
 (2) _Write1USART                                          1     1      0      22
                                             21 COMRAM     1     1      0
 ---------------------------------------------------------------------------------
 (1) _Tomcat_Setup                                         1     1      0     392
                                             27 COMRAM     1     1      0
                         _Open1USART
                           _OpenI2C1
 ---------------------------------------------------------------------------------
 (2) _OpenI2C1                                             2     1      1     108
                                             21 COMRAM     2     1      1
 ---------------------------------------------------------------------------------
 (2) _Open1USART                                           6     4      2     284
                                             21 COMRAM     6     4      2
 ---------------------------------------------------------------------------------
 (1) _Tomcat_Press_Int                                    11     9      2   18591
                                             42 BANK0     11     9      2
                            ___ftadd
                            ___ftmul
                            ___fttol
                           ___lwtoft
                         _analogRead
 ---------------------------------------------------------------------------------
 (1) _Tomcat_Depth                                        11     9      2   24296
                                             42 BANK0     11     9      2
                            ___ftadd
                            ___ftdiv
                            ___ftmul
                            ___fttol
                           ___lwtoft
                         _analogRead
 ---------------------------------------------------------------------------------
 (1) _analogRead                                           6     4      2      46
                                             21 COMRAM     9     7      2
 ---------------------------------------------------------------------------------
 (2) ___lwtoft                                             5     2      3    2832
                                             30 COMRAM     5     2      3
                           ___ftpack
                         _analogRead (ARG)
 ---------------------------------------------------------------------------------
 (4) ___ftmul                                             15     9      6    8645
                                              6 BANK0     21    15      6
                           ___awtoft (ARG)
                            ___ftdiv (ARG)
                           ___ftpack
                           ___lwtoft (ARG)
                         _analogRead (ARG)
                              _frexp (ARG)
 ---------------------------------------------------------------------------------
 (4) ___ftadd                                             12     6      6    5870
                                             27 BANK0     15     9      6
                           ___awtoft (ARG)
                            ___ftdiv (ARG)
                            ___ftmul (ARG)
                            ___ftneg (ARG)
                           ___ftpack
                             ___wmul (ARG)
                              _frexp (ARG)
 ---------------------------------------------------------------------------------
 (1) _Tomcat_Claw                                          4     0      4     216
                                             21 COMRAM     4     0      4
 ---------------------------------------------------------------------------------
 (1) _Tomcat_Camera                                        8     4      4     176
                                             30 COMRAM     8     4      4
                         _analogRead
 ---------------------------------------------------------------------------------
 (1) _Thruster_Driver                                     12     9      3   22426
                                             42 BANK0     12     9      3
                         _SetDCEPWM1
                         _SetDCEPWM2
                         _SetDCEPWM3
                          _SetDCPWM4
                           ___awtoft
                            ___ftdiv
                            ___ftmul
                            ___fttol
 ---------------------------------------------------------------------------------
 (2) ___fttol                                             15    11      4     828
                                             27 BANK0     15    11      4
                           ___awtoft (ARG)
                            ___ftdiv (ARG)
                            ___ftmul (ARG)
 ---------------------------------------------------------------------------------
 (2) _SetDCPWM4                                            6     4      2     132
                                             21 COMRAM     6     4      2
 ---------------------------------------------------------------------------------
 (2) _SetDCEPWM3                                           6     4      2     132
                                             21 COMRAM     6     4      2
 ---------------------------------------------------------------------------------
 (2) _SetDCEPWM2                                           6     4      2     132
                                             21 COMRAM     6     4      2
 ---------------------------------------------------------------------------------
 (2) _SetDCEPWM1                                           6     4      2     132
                                             21 COMRAM     6     4      2
 ---------------------------------------------------------------------------------
 (3) ___awtoft                                             5     2      3    3627
                                             29 COMRAM     6     3      3
                           ___ftpack
 ---------------------------------------------------------------------------------
 (5) ___ftpack                                             8     3      5    2493
                                             21 COMRAM     8     3      5
 ---------------------------------------------------------------------------------
 (2) ___ftdiv                                             15     9      6    5735
                                             35 COMRAM    15    15      0
                                              0 BANK0      6     0      6
                           ___awtoft (ARG)
                           ___ftpack
 ---------------------------------------------------------------------------------
 (5) ___ftpack                                             8     3      5    2493
                                             21 COMRAM     8     3      5
 ---------------------------------------------------------------------------------
 Estimated maximum stack depth 5
 ---------------------------------------------------------------------------------
 (Depth) Function   	        Calls       Base Space   Used Autos Params    Refs
 ---------------------------------------------------------------------------------
 (6) _isr                                                 15    15      0     349
                                              6 COMRAM    15    15      0
                             _strcpy
                  i2_Tomcat_TX_error
 ---------------------------------------------------------------------------------
 (7) i2_Tomcat_TX_error                                    1     1      0     146
                                              1 COMRAM     1     1      0
                      i2_Write1USART
 ---------------------------------------------------------------------------------
 (8) i2_Write1USART                                        1     1      0      73
                                              0 COMRAM     1     1      0
 ---------------------------------------------------------------------------------
 (7) _strcpy                                               6     2      4     203
                                              0 COMRAM     6     2      4
 ---------------------------------------------------------------------------------
 Estimated maximum stack depth 8
 ---------------------------------------------------------------------------------

 Call Graph Graphs:

 _main (ROOT)
   _Thruster_Driver
     _SetDCEPWM1
     _SetDCEPWM2
     _SetDCEPWM3
     _SetDCPWM4
     ___awtoft
       ___ftpack
     ___ftdiv
       ___awtoft (ARG)
         ___ftpack
       ___ftpack (ARG)
     ___ftmul
       ___awtoft (ARG)
         ___ftpack
       ___ftdiv (ARG)
         ___awtoft (ARG)
           ___ftpack
         ___ftpack (ARG)
       ___ftpack (ARG)
       ___lwtoft (ARG)
         ___ftpack
         _analogRead (ARG)
       _analogRead (ARG)
       _frexp (ARG)
     ___fttol
       ___awtoft (ARG)
         ___ftpack
       ___ftdiv (ARG)
         ___awtoft (ARG)
           ___ftpack
         ___ftpack (ARG)
       ___ftmul (ARG)
         ___awtoft (ARG)
           ___ftpack
         ___ftdiv (ARG)
           ___awtoft (ARG)
             ___ftpack
           ___ftpack (ARG)
         ___ftpack (ARG)
         ___lwtoft (ARG)
           ___ftpack
           _analogRead (ARG)
         _analogRead (ARG)
         _frexp (ARG)
   _Tomcat_Camera
     _analogRead
   _Tomcat_Claw
   _Tomcat_Depth
     ___ftadd
       ___awtoft (ARG)
         ___ftpack
       ___ftdiv (ARG)
         ___awtoft (ARG)
           ___ftpack
         ___ftpack (ARG)
       ___ftmul (ARG)
         ___awtoft (ARG)
           ___ftpack
         ___ftdiv (ARG)
           ___awtoft (ARG)
             ___ftpack
           ___ftpack (ARG)
         ___ftpack (ARG)
         ___lwtoft (ARG)
           ___ftpack
           _analogRead (ARG)
         _analogRead (ARG)
         _frexp (ARG)
       ___ftneg (ARG)
         ___ftmul (ARG)
           ___awtoft (ARG)
             ___ftpack
           ___ftdiv (ARG)
             ___awtoft (ARG)
               ___ftpack
             ___ftpack (ARG)
           ___ftpack (ARG)
           ___lwtoft (ARG)
             ___ftpack
             _analogRead (ARG)
           _analogRead (ARG)
           _frexp (ARG)
         _log (ARG)
           ___awtoft
             ___ftpack
           ___ftmul
             ___awtoft (ARG)
               ___ftpack
             ___ftdiv (ARG)
               ___awtoft (ARG)
                 ___ftpack
               ___ftpack (ARG)
             ___ftpack (ARG)
             ___lwtoft (ARG)
               ___ftpack
               _analogRead (ARG)
             _analogRead (ARG)
             _frexp (ARG)
           _eval_poly
             ___ftmul
               ___awtoft (ARG)
                 ___ftpack
               ___ftdiv (ARG)
                 ___awtoft (ARG)
                   ___ftpack
                 ___ftpack (ARG)
               ___ftpack (ARG)
               ___lwtoft (ARG)
                 ___ftpack
                 _analogRead (ARG)
               _analogRead (ARG)
               _frexp (ARG)
             ___wmul
               _analogRead (ARG)
           _frexp
       ___ftpack (ARG)
       ___wmul (ARG)
         _analogRead (ARG)
       _frexp (ARG)
     ___ftdiv
       ___awtoft (ARG)
         ___ftpack
       ___ftpack (ARG)
     ___ftmul
       ___awtoft (ARG)
         ___ftpack
       ___ftdiv (ARG)
         ___awtoft (ARG)
           ___ftpack
         ___ftpack (ARG)
       ___ftpack (ARG)
       ___lwtoft (ARG)
         ___ftpack
         _analogRead (ARG)
       _analogRead (ARG)
       _frexp (ARG)
     ___fttol
       ___awtoft (ARG)
         ___ftpack
       ___ftdiv (ARG)
         ___awtoft (ARG)
           ___ftpack
         ___ftpack (ARG)
       ___ftmul (ARG)
         ___awtoft (ARG)
           ___ftpack
         ___ftdiv (ARG)
           ___awtoft (ARG)
             ___ftpack
           ___ftpack (ARG)
         ___ftpack (ARG)
         ___lwtoft (ARG)
           ___ftpack
           _analogRead (ARG)
         _analogRead (ARG)
         _frexp (ARG)
     ___lwtoft
       ___ftpack
       _analogRead (ARG)
     _analogRead
   _Tomcat_Press_Int
     ___ftadd
       ___awtoft (ARG)
         ___ftpack
       ___ftdiv (ARG)
         ___awtoft (ARG)
           ___ftpack
         ___ftpack (ARG)
       ___ftmul (ARG)
         ___awtoft (ARG)
           ___ftpack
         ___ftdiv (ARG)
           ___awtoft (ARG)
             ___ftpack
           ___ftpack (ARG)
         ___ftpack (ARG)
         ___lwtoft (ARG)
           ___ftpack
           _analogRead (ARG)
         _analogRead (ARG)
         _frexp (ARG)
       ___ftneg (ARG)
         ___ftmul (ARG)
           ___awtoft (ARG)
             ___ftpack
           ___ftdiv (ARG)
             ___awtoft (ARG)
               ___ftpack
             ___ftpack (ARG)
           ___ftpack (ARG)
           ___lwtoft (ARG)
             ___ftpack
             _analogRead (ARG)
           _analogRead (ARG)
           _frexp (ARG)
         _log (ARG)
           ___awtoft
             ___ftpack
           ___ftmul
             ___awtoft (ARG)
               ___ftpack
             ___ftdiv (ARG)
               ___awtoft (ARG)
                 ___ftpack
               ___ftpack (ARG)
             ___ftpack (ARG)
             ___lwtoft (ARG)
               ___ftpack
               _analogRead (ARG)
             _analogRead (ARG)
             _frexp (ARG)
           _eval_poly
             ___ftmul
               ___awtoft (ARG)
                 ___ftpack
               ___ftdiv (ARG)
                 ___awtoft (ARG)
                   ___ftpack
                 ___ftpack (ARG)
               ___ftpack (ARG)
               ___lwtoft (ARG)
                 ___ftpack
                 _analogRead (ARG)
               _analogRead (ARG)
               _frexp (ARG)
             ___wmul
               _analogRead (ARG)
           _frexp
       ___ftpack (ARG)
       ___wmul (ARG)
         _analogRead (ARG)
       _frexp (ARG)
     ___ftmul
       ___awtoft (ARG)
         ___ftpack
       ___ftdiv (ARG)
         ___awtoft (ARG)
           ___ftpack
         ___ftpack (ARG)
       ___ftpack (ARG)
       ___lwtoft (ARG)
         ___ftpack
         _analogRead (ARG)
       _analogRead (ARG)
       _frexp (ARG)
     ___fttol
       ___awtoft (ARG)
         ___ftpack
       ___ftdiv (ARG)
         ___awtoft (ARG)
           ___ftpack
         ___ftpack (ARG)
       ___ftmul (ARG)
         ___awtoft (ARG)
           ___ftpack
         ___ftdiv (ARG)
           ___awtoft (ARG)
             ___ftpack
           ___ftpack (ARG)
         ___ftpack (ARG)
         ___lwtoft (ARG)
           ___ftpack
           _analogRead (ARG)
         _analogRead (ARG)
         _frexp (ARG)
     ___lwtoft
       ___ftpack
       _analogRead (ARG)
     _analogRead
   _Tomcat_Setup
     _Open1USART
     _OpenI2C1
   _Tomcat_TX_data
     _Write1USART
     _strlen (ARG)
   _Tomcat_TX_error
     _Write1USART
   _Tomcat_TX_warn
     _Write1USART
   _Tomcat_Temp
     ___ftdiv
       ___awtoft (ARG)
         ___ftpack
       ___ftpack (ARG)
     ___ftmul
       ___awtoft (ARG)
         ___ftpack
       ___ftdiv (ARG)
         ___awtoft (ARG)
           ___ftpack
         ___ftpack (ARG)
       ___ftpack (ARG)
       ___lwtoft (ARG)
         ___ftpack
         _analogRead (ARG)
       _analogRead (ARG)
       _frexp (ARG)
     ___fttol
       ___awtoft (ARG)
         ___ftpack
       ___ftdiv (ARG)
         ___awtoft (ARG)
           ___ftpack
         ___ftpack (ARG)
       ___ftmul (ARG)
         ___awtoft (ARG)
           ___ftpack
         ___ftdiv (ARG)
           ___awtoft (ARG)
             ___ftpack
           ___ftpack (ARG)
         ___ftpack (ARG)
         ___lwtoft (ARG)
           ___ftpack
           _analogRead (ARG)
         _analogRead (ARG)
         _frexp (ARG)
     ___lwtoft
       ___ftpack
       _analogRead (ARG)
     _analogRead
   _Tomcat_Temp_Ex
     ___ftadd
       ___awtoft (ARG)
         ___ftpack
       ___ftdiv (ARG)
         ___awtoft (ARG)
           ___ftpack
         ___ftpack (ARG)
       ___ftmul (ARG)
         ___awtoft (ARG)
           ___ftpack
         ___ftdiv (ARG)
           ___awtoft (ARG)
             ___ftpack
           ___ftpack (ARG)
         ___ftpack (ARG)
         ___lwtoft (ARG)
           ___ftpack
           _analogRead (ARG)
         _analogRead (ARG)
         _frexp (ARG)
       ___ftneg (ARG)
         ___ftmul (ARG)
           ___awtoft (ARG)
             ___ftpack
           ___ftdiv (ARG)
             ___awtoft (ARG)
               ___ftpack
             ___ftpack (ARG)
           ___ftpack (ARG)
           ___lwtoft (ARG)
             ___ftpack
             _analogRead (ARG)
           _analogRead (ARG)
           _frexp (ARG)
         _log (ARG)
           ___awtoft
             ___ftpack
           ___ftmul
             ___awtoft (ARG)
               ___ftpack
             ___ftdiv (ARG)
               ___awtoft (ARG)
                 ___ftpack
               ___ftpack (ARG)
             ___ftpack (ARG)
             ___lwtoft (ARG)
               ___ftpack
               _analogRead (ARG)
             _analogRead (ARG)
             _frexp (ARG)
           _eval_poly
             ___ftmul
               ___awtoft (ARG)
                 ___ftpack
               ___ftdiv (ARG)
                 ___awtoft (ARG)
                   ___ftpack
                 ___ftpack (ARG)
               ___ftpack (ARG)
               ___lwtoft (ARG)
                 ___ftpack
                 _analogRead (ARG)
               _analogRead (ARG)
               _frexp (ARG)
             ___wmul
               _analogRead (ARG)
           _frexp
       ___ftpack (ARG)
       ___wmul (ARG)
         _analogRead (ARG)
       _frexp (ARG)
     ___ftdiv
       ___awtoft (ARG)
         ___ftpack
       ___ftpack (ARG)
     ___ftmul
       ___awtoft (ARG)
         ___ftpack
       ___ftdiv (ARG)
         ___awtoft (ARG)
           ___ftpack
         ___ftpack (ARG)
       ___ftpack (ARG)
       ___lwtoft (ARG)
         ___ftpack
         _analogRead (ARG)
       _analogRead (ARG)
       _frexp (ARG)
     ___ftneg
       ___ftmul (ARG)
         ___awtoft (ARG)
           ___ftpack
         ___ftdiv (ARG)
           ___awtoft (ARG)
             ___ftpack
           ___ftpack (ARG)
         ___ftpack (ARG)
         ___lwtoft (ARG)
           ___ftpack
           _analogRead (ARG)
         _analogRead (ARG)
         _frexp (ARG)
       _log (ARG)
         ___awtoft
           ___ftpack
         ___ftadd
           ___awtoft (ARG)
             ___ftpack
           ___ftdiv (ARG)
             ___awtoft (ARG)
               ___ftpack
             ___ftpack (ARG)
           ___ftmul (ARG)
             ___awtoft (ARG)
               ___ftpack
             ___ftdiv (ARG)
               ___awtoft (ARG)
                 ___ftpack
               ___ftpack (ARG)
             ___ftpack (ARG)
             ___lwtoft (ARG)
               ___ftpack
               _analogRead (ARG)
             _analogRead (ARG)
             _frexp (ARG)
           ___ftpack (ARG)
           ___wmul (ARG)
             _analogRead (ARG)
           _frexp (ARG)
         ___ftmul
           ___awtoft (ARG)
             ___ftpack
           ___ftdiv (ARG)
             ___awtoft (ARG)
               ___ftpack
             ___ftpack (ARG)
           ___ftpack (ARG)
           ___lwtoft (ARG)
             ___ftpack
             _analogRead (ARG)
           _analogRead (ARG)
           _frexp (ARG)
         _eval_poly
           ___ftadd
             ___awtoft (ARG)
               ___ftpack
             ___ftdiv (ARG)
               ___awtoft (ARG)
                 ___ftpack
               ___ftpack (ARG)
             ___ftmul (ARG)
               ___awtoft (ARG)
                 ___ftpack
               ___ftdiv (ARG)
                 ___awtoft (ARG)
                   ___ftpack
                 ___ftpack (ARG)
               ___ftpack (ARG)
               ___lwtoft (ARG)
                 ___ftpack
                 _analogRead (ARG)
               _analogRead (ARG)
               _frexp (ARG)
             ___ftpack (ARG)
             ___wmul (ARG)
               _analogRead (ARG)
             _frexp (ARG)
           ___ftmul
             ___awtoft (ARG)
               ___ftpack
             ___ftdiv (ARG)
               ___awtoft (ARG)
                 ___ftpack
               ___ftpack (ARG)
             ___ftpack (ARG)
             ___lwtoft (ARG)
               ___ftpack
               _analogRead (ARG)
             _analogRead (ARG)
             _frexp (ARG)
           ___wmul
             _analogRead (ARG)
         _frexp
     ___fttol
       ___awtoft (ARG)
         ___ftpack
       ___ftdiv (ARG)
         ___awtoft (ARG)
           ___ftpack
         ___ftpack (ARG)
       ___ftmul (ARG)
         ___awtoft (ARG)
           ___ftpack
         ___ftdiv (ARG)
           ___awtoft (ARG)
             ___ftpack
           ___ftpack (ARG)
         ___ftpack (ARG)
         ___lwtoft (ARG)
           ___ftpack
           _analogRead (ARG)
         _analogRead (ARG)
         _frexp (ARG)
     ___lwtoft
       ___ftpack
       _analogRead (ARG)
     _analogRead
     _log
       ___awtoft
         ___ftpack
       ___ftadd
         ___awtoft (ARG)
           ___ftpack
         ___ftdiv (ARG)
           ___awtoft (ARG)
             ___ftpack
           ___ftpack (ARG)
         ___ftmul (ARG)
           ___awtoft (ARG)
             ___ftpack
           ___ftdiv (ARG)
             ___awtoft (ARG)
               ___ftpack
             ___ftpack (ARG)
           ___ftpack (ARG)
           ___lwtoft (ARG)
             ___ftpack
             _analogRead (ARG)
           _analogRead (ARG)
           _frexp (ARG)
         ___ftneg (ARG)
           ___ftmul (ARG)
             ___awtoft (ARG)
               ___ftpack
             ___ftdiv (ARG)
               ___awtoft (ARG)
                 ___ftpack
               ___ftpack (ARG)
             ___ftpack (ARG)
             ___lwtoft (ARG)
               ___ftpack
               _analogRead (ARG)
             _analogRead (ARG)
             _frexp (ARG)
         ___ftpack (ARG)
         ___wmul (ARG)
           _analogRead (ARG)
         _frexp (ARG)
       ___ftmul
         ___awtoft (ARG)
           ___ftpack
         ___ftdiv (ARG)
           ___awtoft (ARG)
             ___ftpack
           ___ftpack (ARG)
         ___ftpack (ARG)
         ___lwtoft (ARG)
           ___ftpack
           _analogRead (ARG)
         _analogRead (ARG)
         _frexp (ARG)
       _eval_poly
         ___ftadd
           ___awtoft (ARG)
             ___ftpack
           ___ftdiv (ARG)
             ___awtoft (ARG)
               ___ftpack
             ___ftpack (ARG)
           ___ftmul (ARG)
             ___awtoft (ARG)
               ___ftpack
             ___ftdiv (ARG)
               ___awtoft (ARG)
                 ___ftpack
               ___ftpack (ARG)
             ___ftpack (ARG)
             ___lwtoft (ARG)
               ___ftpack
               _analogRead (ARG)
             _analogRead (ARG)
             _frexp (ARG)
           ___ftneg (ARG)
             ___ftmul (ARG)
               ___awtoft (ARG)
                 ___ftpack
               ___ftdiv (ARG)
                 ___awtoft (ARG)
                   ___ftpack
                 ___ftpack (ARG)
               ___ftpack (ARG)
               ___lwtoft (ARG)
                 ___ftpack
                 _analogRead (ARG)
               _analogRead (ARG)
               _frexp (ARG)
           ___ftpack (ARG)
           ___wmul (ARG)
             _analogRead (ARG)
           _frexp (ARG)
         ___ftmul
           ___awtoft (ARG)
             ___ftpack
           ___ftdiv (ARG)
             ___awtoft (ARG)
               ___ftpack
             ___ftpack (ARG)
           ___ftpack (ARG)
           ___lwtoft (ARG)
             ___ftpack
             _analogRead (ARG)
           _analogRead (ARG)
           _frexp (ARG)
         ___wmul
           _analogRead (ARG)
       _frexp
   ___awmod
   ___wmul
     _analogRead (ARG)
   _analogRead
   _atoi
     ___wmul
       _analogRead (ARG)
     _isdigit
     _strtok (ARG)
       _strcspn
         _strchr
       _strspn
         _strchr
   _puts1USART
     _Write1USART
   _sprintf
     ___lwdiv
     ___lwmod
       ___lwdiv (ARG)
   _strlen
   _strtok
     _strcspn
       _strchr
     _strspn
       _strchr

 _isr (ROOT)
   _strcpy
   i2_Tomcat_TX_error
     i2_Write1USART

 Address spaces:
Name               Size   Autos  Total    Cost      Usage
BIGRAM             5FF      0       0      16        0.0%
EEDATA             100      0       0       0        0.0%
BITBANK5           100      0       0      14        0.0%
BANK5              100      0       0      15        0.0%
BITBANK4           100      0       0      12        0.0%
BANK4              100      0       0      13        0.0%
BITBANK3           100      0       0      10        0.0%
BANK3              100      0       0      11        0.0%
BITBANK2           100      0       0       7        0.0%
BANK2              100      0       0       8        0.0%
BITBANK1           100      0       0       5        0.0%
BANK1              100     70      BE       6       74.2%
BITBANK0            A0      0       0       3        0.0%
BANK0               A0     51      9E       4       98.8%
BITCOMRAM           5F      0       1       0        1.1%
COMRAM              5F     32      46       1       73.7%
BITSFR_1             0      0       0      40        0.0%
SFR_1                0      0       0      40        0.0%
BITSFR               0      0       0      40        0.0%
SFR                  0      0       0      40        0.0%
STACK                0      0       0       2        0.0%
NULL                 0      0       0       0        0.0%
ABS                  0      0     1A2       9        0.0%
DATA                 0      0     1A2      17        0.0%
CODE                 0      0       0       0        0.0%


Microchip Technology PIC18 Macro Assembler V1.30 build 55553 
Symbol Table                                                                                   Tue Jul 19 18:33:04 2016

       ___wmul@multiplicand 0021                __CFG_CP0$OFF 000000                __CFG_CP1$OFF 000000  
              __CFG_CP2$OFF 000000            ?_Thruster_Driver 008A                __CFG_CP3$OFF 000000  
              ___ftadd@exp1 0089                ___ftadd@exp2 0088                ___ftadd@sign 0087  
                       l311 091C                         l320 09D6                         l305 078A  
                       l331 0C0C                         l315 099A                         l326 0BE4  
                       l511 10F4                         l600 2832                         l328 0C00  
                       l513 1110                         l514 112C                         l515 1148  
                       l550 259A                         l544 2564                         l560 25BA  
                       l546 2574                         l570 2952                         l555 25A6  
                       l548 258A                         l564 25DE                         l573 295C  
                       l582 284C                         l591 286A                         l576 2966  
                       l585 2856                         l683 23E2                         l588 2860  
                       l685 23EC                         l686 23EE                         l679 23D0  
                       l695 2928                         l980 1FDC                __CFG_CPB$OFF 000000  
              __CFG_CPD$OFF 000000      __size_ofi2_Write1USART 0014                         _mag 00EC  
                       _log 16A4                         _isr 0008             ??_Tomcat_Camera 0023  
              ___awmod@sign 001C                         prod 000FF3                         wreg 000FE8  
                _TXSTA1bits 000FAC    __end_of_Tomcat_Press_Int 1D36                 main@delimit 013C  
              __CFG_LVP$OFF 000000                ___ftdiv@cntr 002D                ___ftdiv@sign 0032  
                      l1206 1A98                        l1207 1AEE                        l1172 0C96  
                      l1229 2790                        l1421 2148                        l1176 0CDA  
                      l1416 20B2                        l1178 0D14                        l1187 0E32  
                      l1196 0E6A                        l1368 2452                        l1473 26B4  
                      l1378 2626                        l1459 2546                        l1469 24F6  
                      l5014 26FA                        l5112 2576                        l5032 25D6  
                      l5016 26FE                        l5116 258C                        l5108 2566  
                      l5140 23C4                        l5070 2140                        l5062 2100  
                      l5054 20C4                        l5160 23E4                        l5090 1F60  
                      l5148 23D2                        l5340 29BA                        l5076 1F1A  
                      l5094 1F70                        l5078 1F1E                        l6230 184E  
                      l5098 1FAA                        l6242 18A2                        l6500 21CC  
                      l6252 18DA                        l6236 186C                        l6502 21D6  
                      l6280 1992                        l6272 1936                        l8200 08AC  
                      l5642 13A2                        l6530 0CE8                        l5562 2920  
                      l6274 193C                        l6266 1916                        l6282 199A  
                      l5660 1462                        l6524 0CA4                        l6284 19B8  
                      l8300 0BF6                        l8204 08C6                        ?_log 0099  
                      l5670 14A6                        l5590 2274                        l5582 2254  
                      l5574 2226                        l6710 242C                        l8206 08D6  
                      l5672 14C0                        l5664 1480                        l6552 0D9C  
                      l6536 0D06                        l5584 225C                        l8224 0976  
                      l6490 2170                        l5674 14C8                        l6554 0DB2  
                      l6546 0D60                        l5690 22C0                        l5586 2260  
                      l5594 227E                        l5578 2242                        l6706 2420  
                      l6730 2608                        l5754 250A                        l5746 24BA  
                      l8242 09D0                        l6492 217A                        l8324 10E4  
                      l6572 0EA2                        l6564 0E0E                        l6556 0DC2  
                      l6708 2428                        l5772 26D0                        l5756 2512  
                      l5748 24C2                        l8260 0A3C                        l8236 09B8  
                      l8228 0990                        ?_isr 0001                        l6494 2198  
                      l6486 2162                        l5678 14F2                        l8318 1018  
                      l6582 0F1E                        l6566 0E24                        l6558 0DD2  
                      l5598 228C                        l6718 2448                        l6734 261C  
                      l6726 25FC                        l8190 0868                        l6592 19FC  
                      l8336 1164                        l6728 2604                        l6498 21AE  
                      l8522 1726                        l8194 0882                        l8516 16EA  
                      l6598 1A32                        l8542 11C8                        l6696 2488  
                      l8296 0BE6                        l8562 127E                        l8572 12E2  
                      l8548 120C                        l8566 12AA                        l8576 130E  
                      l8586 1D84                        l8588 1E12                        STR_1 0649  
                      STR_2 066E                        STR_3 066E                        STR_4 066E  
                      _PIE1 000F9D       Tomcat_TX_data@tx_buff 001C                        u4441 1376  
                      u4530 22EA                        u3555 27E2                        u4460 13CE  
                      u3565 27A8                        u3575 267C                        u3585 263A  
                      u4465 13C4                        u5601 0C56                        u4538 22EC  
                      u7311 06A8                        u5801 19DA                        u5821 1A10  
                      u5591 0C32                        u7505 0B18                        u7605 1154  
                      u7606 1156                        _RCON 000FD0                        u7901 119E  
                      u7575 1100                        u7576 1102                        u7585 111C  
                      u7921 11E2                        u7586 111E                        u7595 1138  
                      u7596 113A                        u7885 16BE                 main@ex_temp 0140  
                      _TMR0 000FD6                        _TMR1 000FCE           i2_Tomcat_TX_error 2876  
                      _atoi 1F18                        _main 0672                ___ftpack@arg 0016  
              ___ftpack@exp 0019                        _gyro 00B1                        _time 01BD  
                      fsr0h 000FEA                        fsr1h 000FE2                        fsr0l 000FE9  
                      fsr2h 000FDA                        indf1 000FE7                        fsr1l 000FE1  
                      indf2 000FDF                        fsr2l 000FD9               __CFG_BORV$285 000000  
                      log@x 0099                        pclat 000FFA                        prodh 000FF4  
                      prodl 000FF3                _rx_temp_buff 0190                        start 01BA  
        ?i2_Tomcat_TX_error 0001               __CFG_IESO$OFF 000000            ??_Tomcat_TX_data 001F  
              ___ftmul@cntr 0079            ??_Tomcat_TX_warn 0017                ___ftmul@sign 007A  
              ___fttol@exp1 0089            ??_Tomcat_Temp_Ex 00A5         ??i2_Tomcat_TX_error 0002  
                     ??_log 0033                ___fttol@lval 0085                       ??_isr 0007  
                     ?_atoi 0027                       ?_main 0001                       _ADRES 000FC3  
           __end_of___ftadd 0F44             __end_of___awmod 2296             __end_of___ftdiv 1B28  
           __end_of___ftneg 279E                main@in_count 016F             __end_of___ftmul 135C  
                     _T0CON 000FD5                       _T1CON 000FCD             __end_of___fttol 1504  
                     _T2CON 000FBA                       _T4CON 000F51             __end_of___lwdiv 245C  
           __end_of___lwmod 2630               __CFG_WDTEN$ON 000000                       i2l286 008A  
                     i2l296 016E                       i2l582 287A                       i2l591 2898  
                     i2l585 2884                       i2l588 288E                       _RCREG 000FAE  
             __CFG_WDTPS$16 000000                       _PORTA 000F80                       _PORTB 000F81  
                     _PORTC 000F82                       _PORTD 000F83                       _PORTE 000F84  
                     _TRISA 000F92                       _TRISB 000F93                       _TRISC 000F94  
                     _TRISD 000F95                       _TRISE 000F96               __CFG_WRT0$OFF 000000  
             __CFG_WRT1$OFF 000000               __CFG_WRT2$OFF 000000               __CFG_WRT3$OFF 000000  
              main@int_temp 0163              __CFG_EBTR0$OFF 000000              __CFG_FCMEN$OFF 000000  
            __CFG_EBTR1$OFF 000000              __CFG_EBTR2$OFF 000000              __CFG_EBTR3$OFF 000000  
             __CFG_WRTB$OFF 000000               __CFG_WRTC$OFF 000000               __CFG_WRTD$OFF 000000  
                     _accel 00E6              __CFG_EBTRB$OFF 000000               ___awtoft@sign 0023  
           __end_of_dpowers 060B                       _frexp 2296                       _errno 00B7  
           __end_of_isdigit 2928          __CFG_MCLRE$EXTMCLR 000000               ___ftpack@sign 001A  
                     atoi@a 002C                       atoi@s 0027   __end_ofi2_Tomcat_TX_error 28A4  
            __pbitbssCOMRAM 01F8                       tablat 000FF5                       status 000FD8  
           __end_of_sprintf 19C6             __end_of_strcspn 2550              __CFG_FOSC$HSHP 000000  
             i2_Write1USART 29C0              __CFG_PBADEN$ON 000000                  _SetDCEPWM1 27D8  
                _SetDCEPWM2 279E                  _SetDCEPWM3 2672           ??_Tomcat_TX_error 0017  
           __initialization 232A                 log@exponent 009E                __end_of_atoi 1FE6  
              __end_of_main 0C18              puts1USART@data 0017            __end_of_OpenI2C1 29AC  
                _Open1USART 23AC                      ??_atoi 0029                      ??_main 00AF  
             ___fttol@sign1 0084               __activetblptr 000002       i2Tomcat_TX_error@code 0002  
   Tomcat_TX_data@num_bytes 001E           Tomcat_Camera@tilt 0021                      _ADCON0 000FC2  
                    _ADCON1 000FC1                      _ADCON2 000FC0                      ?_frexp 0016  
                    _CCPR1L 000FBE                      _CCPR2L 000F67                      _CCPR3L 000F5E  
                    _CCPR4L 000F58            __end_of___awtoft 24B0                      _ANSELA 000F38  
                    _ANSELB 000F39                      _ANSELC 000F3A                      _ANSELD 000F3B  
                    _ANSELE 000F3C            __end_of___ftpack 21FA                      _INTCON 000FF2  
                    i2l4686 28AE                      i2l4688 28B6                      i2l5808 005E  
                    i2l5842 0124                      i2l5834 00E2                      i2l5850 0164  
                    i2l5828 00B6                      i2l5838 00FC                      i2l5846 0130  
                    i2l5784 29CE                      i2l5858 017E            __end_of___lwtoft 28FE  
                    _RCSTA1 000FAB                      _OSCFIF 007D0F                      _SPBRG1 000FAF  
        __size_of_SetDCPWM4 0042              ?i2_Write1USART 0001                      _TXREG1 000FAD  
                    _TXSTA1 000FAC               main@int_press 016B              __CFG_PWRTEN$ON 000000  
            __CFG_XINST$OFF 000000                      ___wmul 272A                   ??___ftadd 0081  
                 ??___awmod 001A                   ??___ftdiv 0024                   ??___ftneg 0033  
                 ??___ftmul 006C                   ??___fttol 007F                   ??___lwdiv 001A  
                 ??___lwmod 0022               main@v_current 0165                      clear_0 2330  
                    clear_1 233C                      clear_2 234A             ___awmod@divisor 0018  
           ___awmod@counter 001B                      _strchr 26B4                      _strcpy 28A4  
                    _strlen 26F0                      _strtok 20A2                      _strspn 24B0  
         analogRead@channel 001C       ___ftmul@f3_as_product 0076                __pdataCOMRAM 0033  
                 ??_isdigit 0016                __mediumconst 0000                      tblptrh 000FF7  
                    tblptrl 000FF6                      tblptru 000FF8                   ??_sprintf 0024  
                 ??_strcspn 001E             __CFG_HFOFST$OFF 000000  __size_ofi2_Tomcat_TX_error 002E  
         Tomcat_Depth@depth 0090        Tomcat_Press_Int@temp 0092               main@surf_buff 0100  
          __end_oflog@coeff 0628                  __accesstop 0060     __end_of__initialization 23A2  
                ___ftadd@f1 007B                  ___ftadd@f2 007E               ??_Tomcat_Claw 001A  
              eval_poly@res 0096                  ___ftdiv@f1 0060                  ___ftdiv@f2 0063  
                ___ftdiv@f3 002E               ??_Tomcat_Temp 008C                  ___ftneg@f1 00A0  
                ___awtoft@c 001E                 ?_SetDCEPWM1 0016                 ?_SetDCEPWM2 0016  
               ?_SetDCEPWM3 0016                  ___ftmul@f1 0066                  ___ftmul@f2 0069  
                ___fttol@f1 007B              __pcstackCOMRAM 0001                __pidataBANK0 29E0  
              __pidataBANK1 29EC               __end_of_frexp 232A              main@check_recv 0169  
               ?_Open1USART 0016                  ___lwtoft@c 001F           __end_of_SetDCPWM4 2672  
                   ??_frexp 001B           ?_Tomcat_Press_Int 008A                  __pbssBANK0 00B1  
                __pbssBANK1 0170         _Tomcat_Temp_Ex$3487 00A9             ??i2_Write1USART 0001  
        __size_of_eval_poly 00F6          ??_Tomcat_Press_Int 008C             __CFG_PLLCFG$OFF 000000  
             ??_Write1USART 0016                   ?_OpenI2C1 0016                  _analogRead 2812  
        __CFG_CCP2MX$PORTC1 000000                OpenI2C1@slew 0016                     ?___wmul 001F  
        __CFG_CCP3MX$PORTB5 000000         __end_of_Tomcat_Claw 259E         __end_of_Tomcat_Temp 20A2  
                   _CCP1CON 000FBD                     _CCP2CON 000F66                     _CCP3CON 000F5D  
                   _CCP4CON 000F57                     _ECCP1AS 000FB6                     _ECCP2AS 000F64  
                   _ECCP3AS 000F5B                  _leak1_flag 01F8                  _leak2_flag 01F9  
                 ?___awtoft 001E                   ?___ftpack 0016        Tomcat_Camera@pan_pos 0023  
                   ?_strchr 0016                     ?_strcpy 0001                     ?_strlen 0016  
                 ?___lwtoft 001F                     ?_strtok 0021                     ?_strspn 001A  
          Open1USART@config 001B                  __xmaddress 0044         Tomcat_TX_error@code 0017  
       __size_of_SetDCEPWM1 003A         __size_of_SetDCEPWM2 003A         __size_of_SetDCEPWM3 0042  
     __end_of_Tomcat_Camera 2990                     _SPBRGH1 000FB0                     _SSP1ADD 000FC8  
                   _SSP1BUF 000FC9    __size_of_Thruster_Driver 0240                  _comms_time 018E  
           _Tomcat_TX_error 2848                  _freg_acc_x 0033                  _freg_acc_y 0037  
                _freg_acc_z 003B                  _freg_mag_x 00F2                  _freg_mag_y 00F6  
                _freg_mag_z 00FA                _rx1_255_flag 0045           i2Write1USART@data 0001  
                ??_OpenI2C1 0017         __size_of_Open1USART 005A                     __Hparam 0000  
                   __Lparam 0000         __end_of_Write1USART 29C0                     ___ftadd 0C18  
                   ___awmod 21FA                     ___ftdiv 19C6                     ___ftneg 2764  
           __size_of___wmul 003A                     ___ftmul 1184                     ___fttol 135C  
                   ___lwdiv 2406                     ___lwmod 25EA            main@main_current 0142  
              __psmallconst 0600             __CFG_STVREN$OFF 000000                     __pcinit 232A  
                ??___awtoft 0021                  ??___ftpack 001B           __end_of_eval_poly 1E2C  
                   __ramtop 0600                     __ptext0 0672                     __ptext1 20A2  
                   __ptext2 24B0                     __ptext3 2500                     __ptext4 26B4  
                   __ptext5 26F0                     __ptext6 1840                     __ptext7 25EA  
                   __ptext8 2406                     __ptext9 2928                  ??___lwtoft 0022  
           __size_of_strchr 003C             __size_of_strcpy 002E             __size_of_strlen 003A  
           __size_of_strtok 00B0             __size_of_strspn 0050                     _dpowers 0601  
              __size_of_log 019C                     _isdigit 28FE                __size_of_isr 01B2  
          ___awmod@dividend 0016                     _sprintf 1840                     _strcspn 2500  
      end_of_initialization 23A2           Thruster_Driver@dc 0094               ?_Tomcat_Depth 008A  
             analogRead@num 001D               __Lmediumconst 0000               ?_Tomcat_Setup 0001  
               ?_analogRead 0016           __end_ofmain@F8439 060D                 _Tomcat_Claw 2550  
               _Tomcat_Temp 1FE6                     postdec1 000FE5                     postdec2 000FDD  
                   postinc0 000FEE                     postinc1 000FE6                     postinc2 000FDE  
                   strlen@s 0016                     strspn@i 001F                   _PORTBbits 000F81  
                _puts1USART 2928     __size_of_Tomcat_TX_data 004C     __size_of_Tomcat_TX_warn 0024  
   __end_of_Tomcat_TX_error 2876       Tomcat_Press_Int@press 0090     __size_of_Tomcat_Temp_Ex 01A0  
            ??_Tomcat_Depth 008C              ??_Tomcat_Setup 001C                 _Write1USART 29AC  
               ___ftdiv@exp 0031           ??_Thruster_Driver 008D                ??_SetDCEPWM1 0018  
              ??_SetDCEPWM2 0018                ??_SetDCEPWM3 0018                 ___ftmul@exp 0075  
            __end_of___wmul 2764               __pidataCOMRAM 29D4                ??_Open1USART 0018  
            __end_of_strchr 26F0              __end_of_strcpy 28D2              __end_of_strlen 272A  
       __size_of_analogRead 0036              __end_of_strtok 2152              __end_of_strspn 2500  
       start_initialization 232A                  eval_poly@d 008D                  eval_poly@n 008F  
                eval_poly@x 008A                   _SetDCPWM4 2630                 __end_of_log 1840  
               __end_of_isr 01BA          __end_of_SetDCEPWM1 2812          __end_of_SetDCEPWM2 27D8  
        __end_of_SetDCEPWM3 26B4             SetDCPWM4@DCycle 001A                  frexp@value 0016  
          Tomcat_Camera@pan 001F          __end_of_Open1USART 2406           __size_of_OpenI2C1 001C  
 __size_of_Tomcat_Press_Int 0106                    ??___wmul 0023                 __pdataBANK0 00F2  
               __pdataBANK1 01BD            Tomcat_Claw@wrist 0018        Thruster_Driver@input 008A  
                  ??_strchr 001A                 ?_puts1USART 0017                    ??_strcpy 0005  
                  ??_strlen 0018                    ??_strtok 0025                    ??_strspn 001E  
         __size_of___awtoft 0054           __size_of___ftpack 00A8                 __pbssCOMRAM 0040  
          ?_Tomcat_TX_error 0001           __size_of___lwtoft 002C               __pcstackBANK0 0060  
             __pcstackBANK1 0100                  ?_SetDCPWM4 0016                   __gaddress 0043  
       __end_of__stringdata 0670                _isdigit$3035 0017         SetDCEPWM1@dutycycle 0016  
               sprintf@_val 002A                 sprintf@flag 0028                 sprintf@prec 0029  
     __end_ofi2_Write1USART 29D4         SetDCEPWM2@dutycycle 0016            ___lwdiv@dividend 0016  
                 __pintcode 0008         SetDCEPWM3@dutycycle 0016                    ?___ftadd 007B  
                  ?___awmod 0016                    ?___ftdiv 0060                    ?___ftneg 00A0  
                  ?___ftmul 0066                    ?___fttol 007B                    ?___lwdiv 0016  
                  ?___lwmod 001E             Open1USART@spbrg 0016            __CFG_PRICLKEN$ON 000000  
      __end_of_Tomcat_Depth 1C30              _Tomcat_TX_data 259E              _Tomcat_TX_warn 294E  
      __end_of_Tomcat_Setup 1F18                 __smallconst 0600                    ?_isdigit 0001  
                 _eval_poly 1D36              _Tomcat_Temp_Ex 1504                   _rx1_count 0046  
                  _CCPTMRS0 000F49                    _CCPTMRS1 000F48            ___lwdiv@quotient 001C  
                  ?_sprintf 0060              __size_of_frexp 0094             Write1USART@data 0016  
                  ?_strcspn 001A          Tomcat_TX_warn@code 0017              ___wmul@product 0025  
                  _LATAbits 000F89                    _LATBbits 000F8A                    _LATCbits 000F8B  
                  _LATDbits 000F8C                    _LATEbits 000F8D                ??_analogRead 0018  
                 _tmr0_flag 01FC                   _tmr1_flag 01FD                   _tmr2_flag 01FE  
                  _PIE1bits 000F9D         __size_of_puts1USART 0026                   _tmr3_flag 01FF  
                  _PIE2bits 000FA0                ?_Tomcat_Claw 0016       Tomcat_Camera@tilt_pos 0025  
              ?_Tomcat_Temp 008A                    _PIR1bits 000F9E                    _PIR2bits 000FA1  
                  _PIR3bits 000FA4                   main@F8436 0170                   main@F8439 060B  
                  _SSP1CON1 000FC6                    _SSP1CON2 000FC5      __size_of_Tomcat_Camera 001E  
                  _PSTR1CON 000FB9                    _PSTR2CON 000F63                    _PSTR3CON 000F5A  
                  _SSP1STAT 000FC7      __end_of_Tomcat_TX_data 25EA      __end_of_Tomcat_TX_warn 2972  
                _ADCON0bits 000FC2                 __stringdata 0649           ___wmul@multiplier 001F  
    __end_of_Tomcat_Temp_Ex 16A4                   main@check 016D                   main@depth 013E  
                ?_eval_poly 008A                   main@input 0144                   main@token 0167  
        __end_of_analogRead 2848                 ??_SetDCPWM4 0018             _Thruster_Driver 0F44  
       __end_ofatan@coeff_a 063A         __end_ofatan@coeff_b 0649                   copy_data0 2376  
                 copy_data1 2396                ?_Write1USART 0001                    _OpenI2C1 2990  
                 frexp@eptr 0019                    __Hrparam 0000            SetDCEPWM1@DCycle 001A  
                  __Lrparam 0000            SetDCEPWM2@DCycle 001A          __CFG_BOREN$SBORDIS 000000  
          _Tomcat_Press_Int 1C30            SetDCEPWM3@DCycle 001A             Tomcat_Claw@grip 0016  
         __CFG_P2BMX$PORTD2 000000            __size_of___ftadd 032C            __size_of___awmod 009C  
          __size_of___ftdiv 0162            __size_of___ftneg 003A            __size_of___ftmul 01D8  
           ?_Tomcat_TX_data 001C            __size_of___fttol 01A8            __size_of___lwdiv 0056  
          __size_of___lwmod 0046                    ___awtoft 245C             ?_Tomcat_TX_warn 0001  
                  ___ftpack 2152                    ___lwtoft 28D2             ?_Tomcat_Temp_Ex 00A3  
           Tomcat_TX_data@k 0020            __size_of_isdigit 002A             ___lwdiv@divisor 0018  
        SetDCPWM4@dutycycle 0016             ___lwdiv@counter 001B                    __ptext10 1F18  
                  __ptext11 28FE                    __ptext20 294E                    __ptext12 21FA  
                  __ptext21 2848                    __ptext13 1504                    __ptext30 28D2  
                  __ptext22 259E                    __ptext14 16A4                    __ptext31 1184  
                  __ptext23 29AC                    __ptext15 2296                    __ptext40 27D8  
                  __ptext32 0C18                    __ptext24 1E2C                    __ptext16 1D36  
                  __ptext41 245C                    __ptext33 2550                    __ptext25 2990  
                  __ptext17 272A                    __ptext42 2152                    __ptext34 2972  
                  __ptext26 23AC                    __ptext18 2764                    __ptext43 19C6  
                  __ptext35 0F44                    __ptext27 1C30                    __ptext19 1FE6  
                  __ptext36 135C                    __ptext28 1B28                    __ptext45 2876  
                  __ptext37 2630                    __ptext29 2812                    __ptext46 29C0  
                  __ptext38 2672                    __ptext47 28A4                    __ptext39 279E  
                  __ptext48 0000                _SSP1CON1bits 000FC6                _SSP1CON2bits 000FC5  
             _Tomcat_Camera 2972            __size_of_sprintf 0186            __size_of_strcspn 0050  
                strcpy@from 0003                    _rx1_flag 01FA                    _rx1_buff 00B9  
                  _rx2_flag 01FB               __size_of_atoi 00CE               __size_of_main 05A6  
           Tomcat_Temp@temp 0090       __size_of_Tomcat_Depth 0108                    atoi@sign 002B  
     __size_of_Tomcat_Setup 00EC                _SSP1STATbits 000FC7     __end_of_Thruster_Driver 1184  
               atan@coeff_a 0628                 atan@coeff_b 063A                ??_puts1USART 0019  
         OpenI2C1@sync_mode 0017               _USART1_Status 0042                    log@coeff 060D  
                _INTCONbits 000FF2                 ??_eval_poly 0091              ?_Tomcat_Camera 001F  
                  isdigit@c 0018          Thruster_Driver@dir 0093                    intlevel2 0000  
                 sprintf@ap 0026                   sprintf@sp 0060                   strchr@chr 0018  
          ___lwmod@dividend 001E                   strchr@ptr 0016                _Tomcat_Depth 1B28  
                _RCSTA1bits 000FAB                _Tomcat_Setup 1E2C                   strcspn@s1 001A  
                 strcspn@s2 001C          __end_of_puts1USART 294E        __size_of_Tomcat_Claw 004E  
      __size_of_Tomcat_Temp 00BC     Thruster_Driver@thruster 008C                    sprintf@c 002F  
                  sprintf@f 0062             ___lwmod@divisor 0020                    strcpy@cp 0005  
                  strlen@cp 001A                    strcpy@to 0001             ___lwmod@counter 0023  
                  strcspn@i 001F           __CFG_T3CMX$PORTC0 000000                    strtok@s1 0021  
                  strtok@s2 0023                    strspn@s1 001A                    strspn@s2 001C  
                  strtok@sp 0040          Tomcat_Temp_Ex@temp 00AC    __size_of_Tomcat_TX_error 002E  
       main@comms_timed_out 0162       Tomcat_Depth@tempPress 0092        __size_of_Write1USART 0014  
